; ModuleID = '/home/kinka1/HLS/MedianFilter/solution3/.autopilot/db/a.o.3.bc'
target datalayout = "e-p:64:64:64-i1:8:8-i8:8:8-i16:16:16-i32:32:32-i64:64:64-f32:32:32-f64:64:64-v64:64:64-v128:128:128-a0:0:64-s0:64:64-f80:128:128-n8:16:32:64-S128"
target triple = "x86_64-unknown-linux-gnu"

@out_stream_OC_V_str = internal unnamed_addr constant [13 x i8] c"out_stream.V\00" ; [#uses=1 type=[13 x i8]*]
@out_array_c_str = internal unnamed_addr constant [12 x i8] c"out_array_c\00" ; [#uses=1 type=[12 x i8]*]
@mode7 = internal constant [10 x i8] c"s_axilite\00" ; [#uses=1 type=[10 x i8]*]
@mode = internal constant [10 x i8] c"s_axilite\00" ; [#uses=1 type=[10 x i8]*]
@in_stream_OC_V_str = internal unnamed_addr constant [12 x i8] c"in_stream.V\00" ; [#uses=1 type=[12 x i8]*]
@filter_wrapper_str = internal unnamed_addr constant [15 x i8] c"filter_wrapper\00" ; [#uses=1 type=[15 x i8]*]
@filter_rows_filter_c = internal unnamed_addr constant [24 x i8] c"filter_rows_filter_cols\00" ; [#uses=1 type=[24 x i8]*]
@bundle8 = internal constant [1 x i8] zeroinitializer ; [#uses=1 type=[1 x i8]*]
@bundle = internal constant [1 x i8] zeroinitializer ; [#uses=1 type=[1 x i8]*]
@ap_fifo_str = internal unnamed_addr constant [8 x i8] c"ap_fifo\00" ; [#uses=13 type=[8 x i8]*]
@p_str9 = private unnamed_addr constant [10 x i8] c"s_axilite\00", align 1 ; [#uses=1 type=[10 x i8]*]
@p_str8 = private unnamed_addr constant [6 x i8] c"slave\00", align 1 ; [#uses=9 type=[6 x i8]*]
@p_str7 = private unnamed_addr constant [6 x i8] c"m_axi\00", align 1 ; [#uses=7 type=[6 x i8]*]
@p_str6 = private unnamed_addr constant [12 x i8] c"filter_cols\00", align 1 ; [#uses=3 type=[12 x i8]*]
@p_str48 = internal unnamed_addr constant [1 x i8] zeroinitializer ; [#uses=1 type=[1 x i8]*]
@p_str47 = internal unnamed_addr constant [1 x i8] zeroinitializer ; [#uses=1 type=[1 x i8]*]
@p_str46 = internal unnamed_addr constant [1 x i8] zeroinitializer ; [#uses=1 type=[1 x i8]*]
@p_str45 = internal unnamed_addr constant [1 x i8] zeroinitializer ; [#uses=1 type=[1 x i8]*]
@p_str44 = internal unnamed_addr constant [1 x i8] zeroinitializer ; [#uses=1 type=[1 x i8]*]
@p_str43 = internal unnamed_addr constant [1 x i8] zeroinitializer ; [#uses=1 type=[1 x i8]*]
@p_str41 = internal unnamed_addr constant [1 x i8] zeroinitializer ; [#uses=1 type=[1 x i8]*]
@p_str40 = internal unnamed_addr constant [1 x i8] zeroinitializer ; [#uses=1 type=[1 x i8]*]
@p_str39 = internal unnamed_addr constant [1 x i8] zeroinitializer ; [#uses=1 type=[1 x i8]*]
@p_str38 = internal unnamed_addr constant [1 x i8] zeroinitializer ; [#uses=1 type=[1 x i8]*]
@p_str37 = internal unnamed_addr constant [1 x i8] zeroinitializer ; [#uses=4 type=[1 x i8]*]
@p_str36 = internal unnamed_addr constant [1 x i8] zeroinitializer ; [#uses=4 type=[1 x i8]*]
@p_str35 = internal unnamed_addr constant [1 x i8] zeroinitializer ; [#uses=4 type=[1 x i8]*]
@p_str34 = internal unnamed_addr constant [1 x i8] zeroinitializer ; [#uses=4 type=[1 x i8]*]
@p_str33 = internal unnamed_addr constant [1 x i8] zeroinitializer ; [#uses=4 type=[1 x i8]*]
@p_str32 = internal unnamed_addr constant [1 x i8] zeroinitializer ; [#uses=4 type=[1 x i8]*]
@p_str31 = internal unnamed_addr constant [1 x i8] zeroinitializer ; [#uses=2 type=[1 x i8]*]
@p_str30 = internal unnamed_addr constant [1 x i8] zeroinitializer ; [#uses=6 type=[1 x i8]*]
@p_str29 = internal unnamed_addr constant [1 x i8] zeroinitializer ; [#uses=6 type=[1 x i8]*]
@p_str28 = internal unnamed_addr constant [1 x i8] zeroinitializer ; [#uses=6 type=[1 x i8]*]
@p_str27 = internal unnamed_addr constant [1 x i8] zeroinitializer ; [#uses=6 type=[1 x i8]*]
@p_str26 = internal unnamed_addr constant [1 x i8] zeroinitializer ; [#uses=6 type=[1 x i8]*]
@p_str25 = internal unnamed_addr constant [1 x i8] zeroinitializer ; [#uses=6 type=[1 x i8]*]
@p_str24 = internal unnamed_addr constant [1 x i8] zeroinitializer ; [#uses=2 type=[1 x i8]*]
@p_str23 = internal unnamed_addr constant [1 x i8] zeroinitializer ; [#uses=1 type=[1 x i8]*]
@p_str22 = internal unnamed_addr constant [1 x i8] zeroinitializer ; [#uses=1 type=[1 x i8]*]
@p_str21 = internal unnamed_addr constant [1 x i8] zeroinitializer ; [#uses=2 type=[1 x i8]*]
@p_str20 = internal unnamed_addr constant [1 x i8] zeroinitializer ; [#uses=1 type=[1 x i8]*]
@p_str2 = private unnamed_addr constant [29 x i8] c"read_pixels_from_stream_loop\00", align 1 ; [#uses=3 type=[29 x i8]*]
@p_str19 = internal unnamed_addr constant [1 x i8] zeroinitializer ; [#uses=1 type=[1 x i8]*]
@p_str18 = internal unnamed_addr constant [1 x i8] zeroinitializer ; [#uses=1 type=[1 x i8]*]
@p_str17 = internal unnamed_addr constant [1 x i8] zeroinitializer ; [#uses=1 type=[1 x i8]*]
@p_str16 = internal unnamed_addr constant [1 x i8] zeroinitializer ; [#uses=1 type=[1 x i8]*]
@p_str15 = internal unnamed_addr constant [1 x i8] zeroinitializer ; [#uses=1 type=[1 x i8]*]
@p_str1 = private unnamed_addr constant [1 x i8] zeroinitializer, align 1 ; [#uses=53 type=[1 x i8]*]
@p_str = private unnamed_addr constant [28 x i8] c"write_pixels_to_stream_loop\00", align 1 ; [#uses=3 type=[28 x i8]*]

; [#uses=1]
define internal fastcc void @write_pixels_to_stre(i32* %in_stream_V, i32* %in_array, i32 %in_array_offset, i32 %out_array, i32* %out_array_out) {
entry:
  call void (...)* @_ssdm_op_SpecInterface(i32* %in_stream_V, [8 x i8]* @ap_fifo_str, i32 0, i32 0, [1 x i8]* @p_str25, i32 0, i32 0, [1 x i8]* @p_str26, [1 x i8]* @p_str27, [1 x i8]* @p_str28, i32 2, i32 2, i32 16, i32 16, [1 x i8]* @p_str29, [1 x i8]* @p_str30)
  call void (...)* @_ssdm_op_SpecInterface(i32* %in_stream_V, [8 x i8]* @ap_fifo_str, i32 0, i32 0, [1 x i8]* @p_str25, i32 0, i32 0, [1 x i8]* @p_str26, [1 x i8]* @p_str27, [1 x i8]* @p_str28, i32 2, i32 2, i32 16, i32 16, [1 x i8]* @p_str29, [1 x i8]* @p_str30)
  call void (...)* @_ssdm_op_SpecInterface(i32* %in_array, [6 x i8]* @p_str7, i32 0, i32 0, [1 x i8]* @p_str1, i32 0, i32 400000, [1 x i8]* @p_str1, [6 x i8]* @p_str8, [1 x i8]* @p_str1, i32 2, i32 2, i32 256, i32 256, [1 x i8]* @p_str1, [1 x i8]* @p_str1)
  call void (...)* @_ssdm_op_SpecInterface(i32* %in_array, [6 x i8]* @p_str7, i32 0, i32 0, [1 x i8]* @p_str1, i32 0, i32 400000, [1 x i8]* @p_str1, [6 x i8]* @p_str8, [1 x i8]* @p_str1, i32 2, i32 2, i32 256, i32 256, [1 x i8]* @p_str1, [1 x i8]* @p_str1)
  call void (...)* @_ssdm_op_SpecInterface(i32* %out_array_out, [8 x i8]* @ap_fifo_str, i32 0, i32 0, [1 x i8]* @p_str15, i32 0, i32 0, [1 x i8]* @p_str16, [1 x i8]* @p_str17, [1 x i8]* @p_str18, i32 2, i32 2, i32 16, i32 16, [1 x i8]* @p_str19, [1 x i8]* @p_str20)
  %out_array_read = call i32 @_ssdm_op_Read.ap_auto.i32(i32 %out_array) ; [#uses=1 type=i32]
  %in_array_offset_read = call i32 @_ssdm_op_Read.ap_auto.i32(i32 %in_array_offset) ; [#uses=1 type=i32]
  call void @_ssdm_op_Write.ap_fifo.i32P(i32* %out_array_out, i32 %out_array_read)
  call void (...)* @_ssdm_op_SpecInterface(i32* %in_stream_V, [8 x i8]* @ap_fifo_str, i32 0, i32 0, [1 x i8]* @p_str25, i32 0, i32 0, [1 x i8]* @p_str26, [1 x i8]* @p_str27, [1 x i8]* @p_str28, i32 2, i32 2, i32 16, i32 16, [1 x i8]* @p_str29, [1 x i8]* @p_str30)
  call void (...)* @_ssdm_op_SpecInterface(i32* %in_array, [6 x i8]* @p_str7, i32 0, i32 0, [1 x i8]* @p_str1, i32 0, i32 400000, [1 x i8]* @p_str1, [6 x i8]* @p_str8, [1 x i8]* @p_str1, i32 2, i32 2, i32 256, i32 256, [1 x i8]* @p_str1, [1 x i8]* @p_str1)
  %in_array_offset1_i_i = call i30 @_ssdm_op_PartSelect.i30.i32.i32.i32(i32 %in_array_offset_read, i32 2, i32 31) ; [#uses=1 type=i30]
  call void (...)* @_ssdm_op_SpecInterface(i32* %in_stream_V, [8 x i8]* @ap_fifo_str, i32 0, i32 0, [1 x i8]* @p_str25, i32 0, i32 0, [1 x i8]* @p_str26, [1 x i8]* @p_str27, [1 x i8]* @p_str28, i32 2, i32 2, i32 16, i32 16, [1 x i8]* @p_str29, [1 x i8]* @p_str30)
  call void (...)* @_ssdm_op_SpecInterface(i32* %in_array, [6 x i8]* @p_str7, i32 0, i32 0, [1 x i8]* @p_str1, i32 0, i32 400000, [1 x i8]* @p_str1, [6 x i8]* @p_str8, [1 x i8]* @p_str1, i32 2, i32 2, i32 256, i32 256, [1 x i8]* @p_str1, [1 x i8]* @p_str1)
  call void @llvm.dbg.value(metadata !{i32* %in_stream_V}, i64 0, metadata !40), !dbg !110 ; [debug line = 3:54] [debug variable = in_stream.V]
  call void @llvm.dbg.value(metadata !{i32* %in_array}, i64 0, metadata !111), !dbg !115 ; [debug line = 4:16] [debug variable = in_array]
  %sext_i_i = zext i30 %in_array_offset1_i_i to i64 ; [#uses=1 type=i64]
  %in_array_addr = getelementptr i32* %in_array, i64 %sext_i_i ; [#uses=2 type=i32*]
  %in_array_addr_i_i_rd = call i1 @_ssdm_op_ReadReq.m_axi.i32P(i32* %in_array_addr, i32 360000), !dbg !116 ; [#uses=0 type=i1] [debug line = 6:32]
  br label %0, !dbg !120                          ; [debug line = 5:44]

; <label>:0                                       ; preds = %1, %entry
  %i_i_i = phi i19 [ 0, %entry ], [ %i, %1 ]      ; [#uses=2 type=i19]
  %exitcond_i_i = icmp eq i19 %i_i_i, -164288, !dbg !120 ; [#uses=1 type=i1] [debug line = 5:44]
  %i = add i19 %i_i_i, 1, !dbg !121               ; [#uses=1 type=i19] [debug line = 5:59]
  br i1 %exitcond_i_i, label %.exit, label %1, !dbg !120 ; [debug line = 5:44]

; <label>:1                                       ; preds = %0
  %empty = call i32 (...)* @_ssdm_op_SpecLoopTripCount(i64 360000, i64 360000, i64 360000) ; [#uses=0 type=i32]
  call void (...)* @_ssdm_op_SpecLoopName([28 x i8]* @p_str) nounwind, !dbg !122 ; [debug line = 5:64]
  %tmp_2_i_i = call i32 (...)* @_ssdm_op_SpecRegionBegin([28 x i8]* @p_str), !dbg !122 ; [#uses=1 type=i32] [debug line = 5:64]
  call void (...)* @_ssdm_op_SpecPipeline(i32 -1, i32 1, i32 1, i32 0, [1 x i8]* @p_str1) nounwind, !dbg !123 ; [debug line = 6:1]
  %temp = call i32 @_ssdm_op_Read.m_axi.i32P(i32* %in_array_addr), !dbg !116 ; [#uses=1 type=i32] [debug line = 6:32]
  call void @llvm.dbg.value(metadata !{i32 %temp}, i64 0, metadata !124), !dbg !116 ; [debug line = 6:32] [debug variable = temp]
  call void @llvm.dbg.value(metadata !{i32* %in_stream_V}, i64 0, metadata !125), !dbg !130 ; [debug line = 144:48@7:3] [debug variable = stream<int>.V]
  call void @llvm.dbg.value(metadata !{i32 %temp}, i64 0, metadata !132), !dbg !134 ; [debug line = 145:31@7:3] [debug variable = tmp]
  call void @_ssdm_op_Write.ap_fifo.volatile.i32P(i32* %in_stream_V, i32 %temp), !dbg !135 ; [debug line = 146:9@7:3]
  %empty_8 = call i32 (...)* @_ssdm_op_SpecRegionEnd([28 x i8]* @p_str, i32 %tmp_2_i_i), !dbg !136 ; [#uses=0 type=i32] [debug line = 8:2]
  call void @llvm.dbg.value(metadata !{i19 %i}, i64 0, metadata !137), !dbg !121 ; [debug line = 5:59] [debug variable = i]
  br label %0, !dbg !121                          ; [debug line = 5:59]

.exit:                                            ; preds = %0
  ret void
}

; [#uses=1]
define internal fastcc void @read_pixels_from_str(i32* %out_stream_V, i32* %out_array, i32* nocapture %out_array_offset) {
entry:
  call void (...)* @_ssdm_op_SpecInterface(i32* %out_stream_V, [8 x i8]* @ap_fifo_str, i32 0, i32 0, [1 x i8]* @p_str32, i32 0, i32 0, [1 x i8]* @p_str33, [1 x i8]* @p_str34, [1 x i8]* @p_str35, i32 2, i32 2, i32 16, i32 16, [1 x i8]* @p_str36, [1 x i8]* @p_str37)
  call void (...)* @_ssdm_op_SpecInterface(i32* %out_array, [6 x i8]* @p_str7, i32 0, i32 0, [1 x i8]* @p_str1, i32 0, i32 400000, [1 x i8]* @p_str1, [6 x i8]* @p_str8, [1 x i8]* @p_str1, i32 2, i32 2, i32 256, i32 256, [1 x i8]* @p_str1, [1 x i8]* @p_str1)
  call void (...)* @_ssdm_op_SpecInterface(i32* %out_array_offset, [8 x i8]* @ap_fifo_str, i32 0, i32 0, [1 x i8]* @p_str43, i32 0, i32 0, [1 x i8]* @p_str44, [1 x i8]* @p_str45, [1 x i8]* @p_str46, i32 2, i32 2, i32 16, i32 16, [1 x i8]* @p_str47, [1 x i8]* @p_str48)
  %out_array_offset_rea = call i32 @_ssdm_op_Read.ap_fifo.i32P(i32* %out_array_offset) ; [#uses=1 type=i32]
  %out_array_offset1_i = call i30 @_ssdm_op_PartSelect.i30.i32.i32.i32(i32 %out_array_offset_rea, i32 2, i32 31) ; [#uses=1 type=i30]
  call void (...)* @_ssdm_op_SpecInterface(i32* %out_stream_V, [8 x i8]* @ap_fifo_str, i32 0, i32 0, [1 x i8]* @p_str32, i32 0, i32 0, [1 x i8]* @p_str33, [1 x i8]* @p_str34, [1 x i8]* @p_str35, i32 2, i32 2, i32 16, i32 16, [1 x i8]* @p_str36, [1 x i8]* @p_str37)
  call void (...)* @_ssdm_op_SpecInterface(i32* %out_array, [6 x i8]* @p_str7, i32 0, i32 0, [1 x i8]* @p_str1, i32 0, i32 400000, [1 x i8]* @p_str1, [6 x i8]* @p_str8, [1 x i8]* @p_str1, i32 2, i32 2, i32 256, i32 256, [1 x i8]* @p_str1, [1 x i8]* @p_str1)
  call void @llvm.dbg.value(metadata !{i32* %out_stream_V}, i64 0, metadata !138), !dbg !145 ; [debug line = 11:56] [debug variable = out_stream.V]
  call void @llvm.dbg.value(metadata !{i32* %out_array}, i64 0, metadata !146), !dbg !150 ; [debug line = 12:18] [debug variable = out_array]
  %sext_i = zext i30 %out_array_offset1_i to i64  ; [#uses=1 type=i64]
  %out_array_addr = getelementptr i32* %out_array, i64 %sext_i ; [#uses=3 type=i32*]
  %out_array_addr_i_wr_s = call i1 @_ssdm_op_WriteReq.m_axi.i32P(i32* %out_array_addr, i32 357604), !dbg !151 ; [#uses=0 type=i1] [debug line = 16:3]
  br label %0, !dbg !155                          ; [debug line = 13:45]

; <label>:0                                       ; preds = %1, %entry
  %i_i = phi i19 [ 0, %entry ], [ %i, %1 ]        ; [#uses=2 type=i19]
  %exitcond_i = icmp eq i19 %i_i, -166684, !dbg !155 ; [#uses=1 type=i1] [debug line = 13:45]
  %i = add i19 %i_i, 1, !dbg !156                 ; [#uses=1 type=i19] [debug line = 13:60]
  br i1 %exitcond_i, label %.exit, label %1, !dbg !155 ; [debug line = 13:45]

; <label>:1                                       ; preds = %0
  %empty = call i32 (...)* @_ssdm_op_SpecLoopTripCount(i64 357604, i64 357604, i64 357604) ; [#uses=0 type=i32]
  call void (...)* @_ssdm_op_SpecLoopName([29 x i8]* @p_str2) nounwind, !dbg !157 ; [debug line = 13:65]
  %tmp_5_i = call i32 (...)* @_ssdm_op_SpecRegionBegin([29 x i8]* @p_str2), !dbg !157 ; [#uses=1 type=i32] [debug line = 13:65]
  call void (...)* @_ssdm_op_SpecPipeline(i32 -1, i32 1, i32 1, i32 0, [1 x i8]* @p_str1) nounwind, !dbg !158 ; [debug line = 14:1]
  call void @llvm.dbg.value(metadata !{i32* %out_stream_V}, i64 0, metadata !159), !dbg !162 ; [debug line = 123:48@15:3] [debug variable = stream<int>.V]
  %tmp = call i32 @_ssdm_op_Read.ap_fifo.volatile.i32P(i32* %out_stream_V), !dbg !164 ; [#uses=1 type=i32] [debug line = 125:9@15:3]
  call void @llvm.dbg.value(metadata !{i32 %tmp}, i64 0, metadata !166), !dbg !164 ; [debug line = 125:9@15:3] [debug variable = tmp]
  call void @llvm.dbg.value(metadata !{i32 %tmp}, i64 0, metadata !167), !dbg !168 ; [debug line = 126:9@15:3] [debug variable = temp]
  call void @_ssdm_op_Write.m_axi.i32P(i32* %out_array_addr, i32 %tmp, i4 -1), !dbg !151 ; [debug line = 16:3]
  %empty_9 = call i32 (...)* @_ssdm_op_SpecRegionEnd([29 x i8]* @p_str2, i32 %tmp_5_i), !dbg !169 ; [#uses=0 type=i32] [debug line = 17:2]
  call void @llvm.dbg.value(metadata !{i19 %i}, i64 0, metadata !170), !dbg !156 ; [debug line = 13:60] [debug variable = i]
  br label %0, !dbg !156                          ; [debug line = 13:60]

.exit:                                            ; preds = %0
  %out_array_addr_i_wr_1 = call i1 @_ssdm_op_WriteResp.m_axi.i32P(i32* %out_array_addr), !dbg !151 ; [#uses=0 type=i1] [debug line = 16:3]
  ret void
}

; [#uses=1]
declare i32 @llvm.part.select.i32(i32, i32, i32) nounwind readnone

; [#uses=1]
declare i10 @llvm.part.select.i10(i10, i32, i32) nounwind readnone

; [#uses=46]
declare void @llvm.dbg.value(metadata, i64, metadata) nounwind readnone

; [#uses=10]
declare void @llvm.dbg.declare(metadata, metadata) nounwind readnone

; [#uses=0]
define void @filter_wrapper(i32* %gmem, i32 %in_array, i32 %out_array) {
  %out_array_read = call i32 @_ssdm_op_Read.s_axilite.i32(i32 %out_array) ; [#uses=1 type=i32]
  call void @llvm.dbg.value(metadata !{i32 %out_array_read}, i64 0, metadata !171), !dbg !175 ; [debug line = 77:15] [debug variable = out_array]
  %in_array_read = call i32 @_ssdm_op_Read.s_axilite.i32(i32 %in_array) ; [#uses=1 type=i32]
  call void @llvm.dbg.value(metadata !{i32 %in_array_read}, i64 0, metadata !176), !dbg !177 ; [debug line = 76:32] [debug variable = in_array]
  %out_array_c = alloca i32, align 4              ; [#uses=5 type=i32*]
  call void (...)* @_ssdm_op_SpecBitsMap(i32* %gmem), !map !178
  call void (...)* @_ssdm_op_SpecDataflowPipeline(i32 -1, [1 x i8]* @p_str1) nounwind, !dbg !187 ; [debug line = 78:1]
  call void (...)* @_ssdm_op_SpecTopModule([15 x i8]* @filter_wrapper_str) nounwind
  %in_stream_V = alloca i32, align 4              ; [#uses=5 type=i32*]
  %empty = call i32 (...)* @_ssdm_op_SpecChannel([12 x i8]* @in_stream_OC_V_str, i32 1, [1 x i8]* @p_str24, [1 x i8]* @p_str24, i32 1024, i32 1024, i32* %in_stream_V, i32* %in_stream_V) nounwind ; [#uses=0 type=i32]
  call void (...)* @_ssdm_op_SpecInterface(i32* %in_stream_V, [8 x i8]* @ap_fifo_str, i32 0, i32 0, [1 x i8]* @p_str25, i32 0, i32 0, [1 x i8]* @p_str26, [1 x i8]* @p_str27, [1 x i8]* @p_str28, i32 2, i32 2, i32 16, i32 16, [1 x i8]* @p_str29, [1 x i8]* @p_str30)
  %out_stream_V = alloca i32, align 4             ; [#uses=5 type=i32*]
  %empty_10 = call i32 (...)* @_ssdm_op_SpecChannel([13 x i8]* @out_stream_OC_V_str, i32 1, [1 x i8]* @p_str31, [1 x i8]* @p_str31, i32 1024, i32 1024, i32* %out_stream_V, i32* %out_stream_V) nounwind ; [#uses=0 type=i32]
  call void (...)* @_ssdm_op_SpecInterface(i32* %out_stream_V, [8 x i8]* @ap_fifo_str, i32 0, i32 0, [1 x i8]* @p_str32, i32 0, i32 0, [1 x i8]* @p_str33, [1 x i8]* @p_str34, [1 x i8]* @p_str35, i32 2, i32 2, i32 16, i32 16, [1 x i8]* @p_str36, [1 x i8]* @p_str37)
  call void (...)* @_ssdm_op_SpecInterface(i32 %out_array, [10 x i8]* @mode7, i32 0, i32 0, [1 x i8]* @p_str1, i32 0, i32 400000, [1 x i8]* @bundle8, [6 x i8]* @p_str8, [1 x i8]* @p_str1, i32 2, i32 2, i32 256, i32 256, [1 x i8]* @p_str1, [1 x i8]* @p_str1)
  call void (...)* @_ssdm_op_SpecInterface(i32 0, [10 x i8]* @p_str9, i32 0, i32 0, [1 x i8]* @p_str1, i32 0, i32 0, [1 x i8]* @p_str1, [1 x i8]* @p_str1, [1 x i8]* @p_str1, i32 0, i32 0, i32 0, i32 0, [1 x i8]* @p_str1, [1 x i8]* @p_str1) nounwind, !dbg !187 ; [debug line = 78:1]
  call void (...)* @_ssdm_op_SpecInterface(i32* %gmem, [6 x i8]* @p_str7, i32 0, i32 0, [1 x i8]* @p_str1, i32 0, i32 400000, [1 x i8]* @p_str1, [6 x i8]* @p_str8, [1 x i8]* @p_str1, i32 2, i32 2, i32 256, i32 256, [1 x i8]* @p_str1, [1 x i8]* @p_str1)
  call void (...)* @_ssdm_op_SpecInterface(i32 %in_array, [10 x i8]* @mode, i32 0, i32 0, [1 x i8]* @p_str1, i32 0, i32 400000, [1 x i8]* @bundle, [6 x i8]* @p_str8, [1 x i8]* @p_str1, i32 2, i32 2, i32 256, i32 256, [1 x i8]* @p_str1, [1 x i8]* @p_str1)
  call void @llvm.dbg.value(metadata !{i32 %in_array}, i64 0, metadata !176), !dbg !177 ; [debug line = 76:32] [debug variable = in_array]
  call void @llvm.dbg.value(metadata !{i32 %out_array}, i64 0, metadata !171), !dbg !175 ; [debug line = 77:15] [debug variable = out_array]
  call void @llvm.dbg.declare(metadata !{i32* %in_stream_V}, metadata !189), !dbg !191 ; [debug line = 78:26] [debug variable = in_stream.V]
  call void @llvm.dbg.declare(metadata !{i32* %out_stream_V}, metadata !192), !dbg !194 ; [debug line = 79:26] [debug variable = out_stream.V]
  %empty_11 = call i32 (...)* @_ssdm_op_SpecChannel([12 x i8]* @out_array_c_str, i32 1, [1 x i8]* @p_str21, [1 x i8]* @p_str21, i32 2, i32 0, i32* %out_array_c, i32* %out_array_c) ; [#uses=0 type=i32]
  call void (...)* @_ssdm_op_SpecInterface(i32* %out_array_c, [8 x i8]* @ap_fifo_str, i32 0, i32 0, [1 x i8]* @p_str22, i32 0, i32 0, [1 x i8]* @p_str23, [1 x i8]* @p_str38, [1 x i8]* @p_str39, i32 2, i32 2, i32 16, i32 16, [1 x i8]* @p_str40, [1 x i8]* @p_str41)
  call fastcc void @write_pixels_to_stre(i32* %in_stream_V, i32* %gmem, i32 %in_array_read, i32 %out_array_read, i32* %out_array_c)
  call fastcc void @filter(i32* %in_stream_V, i32* %out_stream_V) nounwind, !dbg !195 ; [debug line = 81:2]
  call fastcc void @read_pixels_from_str(i32* %out_stream_V, i32* %gmem, i32* nocapture %out_array_c), !dbg !196 ; [debug line = 82:2]
  ret void, !dbg !197                             ; [debug line = 83:1]
}

; [#uses=1]
define internal fastcc void @filter(i32* %in_stream_V, i32* %out_stream_V) {
  %crop_2_1 = alloca i32                          ; [#uses=3 type=i32*]
  call void @llvm.dbg.declare(metadata !{i32* %crop_2_1}, metadata !198) ; [debug variable = crop[2][1]]
  %crop_0_0 = alloca i32                          ; [#uses=2 type=i32*]
  call void @llvm.dbg.declare(metadata !{i32* %crop_0_0}, metadata !206) ; [debug variable = crop[0][0]]
  %crop_0_1 = alloca i32                          ; [#uses=3 type=i32*]
  call void @llvm.dbg.declare(metadata !{i32* %crop_0_1}, metadata !207) ; [debug variable = crop[0][1]]
  %crop_2_0 = alloca i32                          ; [#uses=2 type=i32*]
  call void @llvm.dbg.declare(metadata !{i32* %crop_2_0}, metadata !208) ; [debug variable = crop[2][0]]
  %crop_1_0 = alloca i32                          ; [#uses=2 type=i32*]
  call void @llvm.dbg.declare(metadata !{i32* %crop_1_0}, metadata !209) ; [debug variable = crop[1][0]]
  %crop_1_1 = alloca i32                          ; [#uses=3 type=i32*]
  call void @llvm.dbg.declare(metadata !{i32* %crop_1_1}, metadata !210) ; [debug variable = crop[1][1]]
  call void (...)* @_ssdm_op_SpecInterface(i32* %out_stream_V, [8 x i8]* @ap_fifo_str, i32 0, i32 0, [1 x i8]* @p_str32, i32 0, i32 0, [1 x i8]* @p_str33, [1 x i8]* @p_str34, [1 x i8]* @p_str35, i32 2, i32 2, i32 16, i32 16, [1 x i8]* @p_str36, [1 x i8]* @p_str37)
  call void (...)* @_ssdm_op_SpecInterface(i32* %in_stream_V, [8 x i8]* @ap_fifo_str, i32 0, i32 0, [1 x i8]* @p_str25, i32 0, i32 0, [1 x i8]* @p_str26, [1 x i8]* @p_str27, [1 x i8]* @p_str28, i32 2, i32 2, i32 16, i32 16, [1 x i8]* @p_str29, [1 x i8]* @p_str30)
  %temp_array_0 = alloca [600 x i32], align 16    ; [#uses=1 type=[600 x i32]*]
  %temp_array_1 = alloca [600 x i32], align 16    ; [#uses=1 type=[600 x i32]*]
  call void @llvm.dbg.value(metadata !{i32* %in_stream_V}, i64 0, metadata !211), !dbg !213 ; [debug line = 44:38] [debug variable = in_stream.V]
  call void @llvm.dbg.value(metadata !{i32* %out_stream_V}, i64 0, metadata !214), !dbg !216 ; [debug line = 45:32] [debug variable = out_stream.V]
  call void @llvm.dbg.declare(metadata !{[600 x i32]* %temp_array_0}, metadata !217), !dbg !222 ; [debug line = 47:13] [debug variable = temp_array[0]]
  call void @llvm.dbg.declare(metadata !{[600 x i32]* %temp_array_1}, metadata !223), !dbg !222 ; [debug line = 47:13] [debug variable = temp_array[1]]
  br label %1, !dbg !224                          ; [debug line = 50:28]

; <label>:1                                       ; preds = %._crit_edge, %0
  %indvar_flatten = phi i19 [ 0, %0 ], [ %indvar_flatten_next, %._crit_edge ] ; [#uses=2 type=i19]
  %i = phi i10 [ 0, %0 ], [ %i_mid2, %._crit_edge ] ; [#uses=3 type=i10]
  %j = phi i10 [ 0, %0 ], [ %j_1, %._crit_edge ]  ; [#uses=2 type=i10]
  %crop_2_1_load = load i32* %crop_2_1            ; [#uses=1 type=i32]
  %crop_0_0_load = load i32* %crop_0_0, !dbg !226 ; [#uses=1 type=i32] [debug line = 69:29]
  %crop_0_1_load = load i32* %crop_0_1            ; [#uses=1 type=i32]
  %crop_2_0_load = load i32* %crop_2_0, !dbg !226 ; [#uses=1 type=i32] [debug line = 69:29]
  %crop_1_0_load = load i32* %crop_1_0, !dbg !226 ; [#uses=1 type=i32] [debug line = 69:29]
  %crop_1_1_load = load i32* %crop_1_1            ; [#uses=1 type=i32]
  %exitcond_flatten = icmp eq i19 %indvar_flatten, -164288 ; [#uses=1 type=i1]
  %indvar_flatten_next = add i19 %indvar_flatten, 1 ; [#uses=1 type=i19]
  store i32 %crop_1_1_load, i32* %crop_1_0
  store i32 %crop_2_1_load, i32* %crop_2_0
  store i32 %crop_0_1_load, i32* %crop_0_0
  br i1 %exitcond_flatten, label %3, label %.reset

; <label>:2                                       ; preds = %.reset
  call void @llvm.dbg.value(metadata !{i32* %out_stream_V}, i64 0, metadata !125), !dbg !230 ; [debug line = 144:48@71:5] [debug variable = stream<int>.V]
  call void @llvm.dbg.value(metadata !{i32 %tmp_4}, i64 0, metadata !132), !dbg !232 ; [debug line = 145:31@71:5] [debug variable = tmp]
  call void @_ssdm_op_Write.ap_fifo.volatile.i32P(i32* %out_stream_V, i32 %tmp_4), !dbg !233 ; [debug line = 146:9@71:5]
  br label %._crit_edge, !dbg !231                ; [debug line = 71:5]

._crit_edge:                                      ; preds = %.reset, %2
  %empty = call i32 (...)* @_ssdm_op_SpecRegionEnd([12 x i8]* @p_str6, i32 %tmp_9), !dbg !234 ; [#uses=0 type=i32] [debug line = 72:3]
  %j_1 = add i10 %j_mid2, 1, !dbg !235            ; [#uses=1 type=i10] [debug line = 51:40]
  call void @llvm.dbg.value(metadata !{i10 %j_1}, i64 0, metadata !236), !dbg !235 ; [debug line = 51:40] [debug variable = j]
  br label %1

.reset:                                           ; preds = %1
  %crop_2_1_load_1 = load i32* %crop_2_1, !dbg !226 ; [#uses=1 type=i32] [debug line = 69:29]
  %crop_0_1_load_1 = load i32* %crop_0_1, !dbg !226 ; [#uses=1 type=i32] [debug line = 69:29]
  %crop_1_1_load_1 = load i32* %crop_1_1, !dbg !226 ; [#uses=1 type=i32] [debug line = 69:29]
  call void (...)* @_ssdm_op_SpecLoopName([24 x i8]* @filter_rows_filter_c)
  %empty_12 = call i32 (...)* @_ssdm_op_SpecLoopTripCount(i64 360000, i64 360000, i64 360000) ; [#uses=0 type=i32]
  %exitcond = icmp eq i10 %j, -424, !dbg !237     ; [#uses=3 type=i1] [debug line = 51:29]
  %j_mid2 = select i1 %exitcond, i10 0, i10 %j    ; [#uses=3 type=i10]
  %i_s = add i10 %i, 1, !dbg !238                 ; [#uses=2 type=i10] [debug line = 50:39]
  %tmp = call i9 @_ssdm_op_PartSelect.i9.i10.i32.i32(i10 %i_s, i32 1, i32 9), !dbg !239 ; [#uses=1 type=i9] [debug line = 70:4]
  %icmp = icmp ne i9 %tmp, 0, !dbg !239           ; [#uses=1 type=i1] [debug line = 70:4]
  %tmp_1 = call i9 @_ssdm_op_PartSelect.i9.i10.i32.i32(i10 %i, i32 1, i32 9), !dbg !239 ; [#uses=1 type=i9] [debug line = 70:4]
  %icmp1 = icmp ne i9 %tmp_1, 0, !dbg !239        ; [#uses=1 type=i1] [debug line = 70:4]
  %tmp_mid2 = select i1 %exitcond, i1 %icmp, i1 %icmp1, !dbg !239 ; [#uses=1 type=i1] [debug line = 70:4]
  %i_mid2 = select i1 %exitcond, i10 %i_s, i10 %i ; [#uses=1 type=i10]
  call void (...)* @_ssdm_op_SpecLoopName([12 x i8]* @p_str6) nounwind, !dbg !240 ; [debug line = 51:46]
  %tmp_9 = call i32 (...)* @_ssdm_op_SpecRegionBegin([12 x i8]* @p_str6), !dbg !240 ; [#uses=1 type=i32] [debug line = 51:46]
  call void (...)* @_ssdm_op_SpecPipeline(i32 -1, i32 1, i32 1, i32 0, [1 x i8]* @p_str1) nounwind, !dbg !241 ; [debug line = 52:1]
  call void @llvm.dbg.value(metadata !{i32* %in_stream_V}, i64 0, metadata !159), !dbg !242 ; [debug line = 123:48@53:4] [debug variable = stream<int>.V]
  %tmp_5 = call i32 @_ssdm_op_Read.ap_fifo.volatile.i32P(i32* %in_stream_V), !dbg !244 ; [#uses=3 type=i32] [debug line = 125:9@53:4]
  call void @llvm.dbg.value(metadata !{i32 %tmp_5}, i64 0, metadata !166), !dbg !244 ; [debug line = 125:9@53:4] [debug variable = tmp]
  call void @llvm.dbg.value(metadata !{i32 %tmp_5}, i64 0, metadata !245), !dbg !246 ; [debug line = 126:9@53:4] [debug variable = new_input]
  %tmp_8 = zext i10 %j_mid2 to i64, !dbg !247     ; [#uses=2 type=i64] [debug line = 61:6]
  %temp_array_0_addr = getelementptr [600 x i32]* %temp_array_0, i64 0, i64 %tmp_8, !dbg !247 ; [#uses=2 type=i32*] [debug line = 61:6]
  %crop_0_2 = load i32* %temp_array_0_addr, align 4, !dbg !247 ; [#uses=2 type=i32] [debug line = 61:6]
  call void @llvm.dbg.value(metadata !{i32 %crop_0_2}, i64 0, metadata !249), !dbg !247 ; [debug line = 61:6] [debug variable = crop[0][2]]
  %temp_array_1_addr = getelementptr [600 x i32]* %temp_array_1, i64 0, i64 %tmp_8, !dbg !247 ; [#uses=2 type=i32*] [debug line = 61:6]
  %crop_1_2 = load i32* %temp_array_1_addr, align 4, !dbg !247 ; [#uses=3 type=i32] [debug line = 61:6]
  call void @llvm.dbg.value(metadata !{i32 %crop_1_2}, i64 0, metadata !250), !dbg !247 ; [debug line = 61:6] [debug variable = crop[1][2]]
  call void @llvm.dbg.value(metadata !{i32 %tmp_5}, i64 0, metadata !251), !dbg !252 ; [debug line = 63:5] [debug variable = crop[2][2]]
  store i32 %crop_1_2, i32* %temp_array_0_addr, align 4, !dbg !253 ; [debug line = 66:6]
  store i32 %tmp_5, i32* %temp_array_1_addr, align 4, !dbg !255 ; [debug line = 68:5]
  %tmp_4 = call fastcc i32 @bubble_sort(i32 %crop_0_0_load, i32 %crop_0_1_load_1, i32 %crop_0_2, i32 %crop_1_0_load, i32 %crop_1_1_load_1, i32 %crop_1_2, i32 %crop_2_0_load, i32 %crop_2_1_load_1, i32 %tmp_5), !dbg !226 ; [#uses=1 type=i32] [debug line = 69:29]
  call void @llvm.dbg.value(metadata !{i32 %tmp_4}, i64 0, metadata !256), !dbg !226 ; [debug line = 69:29] [debug variable = new_output]
  %tmp_3 = call i9 @_ssdm_op_PartSelect.i9.i10.i32.i32(i10 %j_mid2, i32 1, i32 9), !dbg !239 ; [#uses=1 type=i9] [debug line = 70:4]
  %icmp2 = icmp ne i9 %tmp_3, 0, !dbg !239        ; [#uses=1 type=i1] [debug line = 70:4]
  %or_cond = and i1 %tmp_mid2, %icmp2, !dbg !239  ; [#uses=1 type=i1] [debug line = 70:4]
  store i32 %crop_1_2, i32* %crop_1_1
  store i32 %crop_0_2, i32* %crop_0_1
  store i32 %tmp_5, i32* %crop_2_1
  br i1 %or_cond, label %2, label %._crit_edge, !dbg !239 ; [debug line = 70:4]

; <label>:3                                       ; preds = %1
  ret void, !dbg !257                             ; [debug line = 74:1]
}

; [#uses=1]
define internal fastcc i32 @bubble_sort(i32 %CROP_0_0_read, i32 %CROP_0_1_read, i32 %CROP_0_2_read, i32 %CROP_1_0_read, i32 %CROP_1_1_read, i32 %CROP_1_2_read, i32 %CROP_2_0_read, i32 %CROP_2_1_read, i32 %CROP_2_2_read) readnone {
.preheader5.preheader.0:
  %CROP_2_2_read_1 = call i32 @_ssdm_op_Read.ap_auto.i32(i32 %CROP_2_2_read) ; [#uses=3 type=i32]
  call void @llvm.dbg.value(metadata !{i32 %CROP_2_2_read_1}, i64 0, metadata !258), !dbg !265 ; [debug line = 20:36] [debug variable = CROP[2][2]]
  %CROP_2_1_read_1 = call i32 @_ssdm_op_Read.ap_auto.i32(i32 %CROP_2_1_read) ; [#uses=3 type=i32]
  call void @llvm.dbg.value(metadata !{i32 %CROP_2_1_read_1}, i64 0, metadata !266), !dbg !265 ; [debug line = 20:36] [debug variable = CROP[2][1]]
  %CROP_2_0_read_1 = call i32 @_ssdm_op_Read.ap_auto.i32(i32 %CROP_2_0_read) ; [#uses=3 type=i32]
  call void @llvm.dbg.value(metadata !{i32 %CROP_2_0_read_1}, i64 0, metadata !267), !dbg !265 ; [debug line = 20:36] [debug variable = CROP[2][0]]
  %CROP_1_2_read_1 = call i32 @_ssdm_op_Read.ap_auto.i32(i32 %CROP_1_2_read) ; [#uses=3 type=i32]
  call void @llvm.dbg.value(metadata !{i32 %CROP_1_2_read_1}, i64 0, metadata !268), !dbg !265 ; [debug line = 20:36] [debug variable = CROP[1][2]]
  %CROP_1_1_read_1 = call i32 @_ssdm_op_Read.ap_auto.i32(i32 %CROP_1_1_read) ; [#uses=3 type=i32]
  call void @llvm.dbg.value(metadata !{i32 %CROP_1_1_read_1}, i64 0, metadata !269), !dbg !265 ; [debug line = 20:36] [debug variable = CROP[1][1]]
  %CROP_1_0_read_1 = call i32 @_ssdm_op_Read.ap_auto.i32(i32 %CROP_1_0_read) ; [#uses=3 type=i32]
  call void @llvm.dbg.value(metadata !{i32 %CROP_1_0_read_1}, i64 0, metadata !270), !dbg !265 ; [debug line = 20:36] [debug variable = CROP[1][0]]
  %CROP_0_2_read_1 = call i32 @_ssdm_op_Read.ap_auto.i32(i32 %CROP_0_2_read) ; [#uses=3 type=i32]
  call void @llvm.dbg.value(metadata !{i32 %CROP_0_2_read_1}, i64 0, metadata !271), !dbg !265 ; [debug line = 20:36] [debug variable = CROP[0][2]]
  %CROP_0_1_read_1 = call i32 @_ssdm_op_Read.ap_auto.i32(i32 %CROP_0_1_read) ; [#uses=3 type=i32]
  call void @llvm.dbg.value(metadata !{i32 %CROP_0_1_read_1}, i64 0, metadata !272), !dbg !265 ; [debug line = 20:36] [debug variable = CROP[0][1]]
  %CROP_0_0_read_1 = call i32 @_ssdm_op_Read.ap_auto.i32(i32 %CROP_0_0_read) ; [#uses=3 type=i32]
  call void @llvm.dbg.value(metadata !{i32 %CROP_0_0_read_1}, i64 0, metadata !273), !dbg !265 ; [debug line = 20:36] [debug variable = CROP[0][0]]
  call void @llvm.dbg.value(metadata !{i32 %CROP_0_0_read}, i64 0, metadata !273), !dbg !265 ; [debug line = 20:36] [debug variable = CROP[0][0]]
  call void @llvm.dbg.value(metadata !{i32 %CROP_0_1_read}, i64 0, metadata !272), !dbg !265 ; [debug line = 20:36] [debug variable = CROP[0][1]]
  call void @llvm.dbg.value(metadata !{i32 %CROP_0_2_read}, i64 0, metadata !271), !dbg !265 ; [debug line = 20:36] [debug variable = CROP[0][2]]
  call void @llvm.dbg.value(metadata !{i32 %CROP_1_0_read}, i64 0, metadata !270), !dbg !265 ; [debug line = 20:36] [debug variable = CROP[1][0]]
  call void @llvm.dbg.value(metadata !{i32 %CROP_1_1_read}, i64 0, metadata !269), !dbg !265 ; [debug line = 20:36] [debug variable = CROP[1][1]]
  call void @llvm.dbg.value(metadata !{i32 %CROP_1_2_read}, i64 0, metadata !268), !dbg !265 ; [debug line = 20:36] [debug variable = CROP[1][2]]
  call void @llvm.dbg.value(metadata !{i32 %CROP_2_0_read}, i64 0, metadata !267), !dbg !265 ; [debug line = 20:36] [debug variable = CROP[2][0]]
  call void @llvm.dbg.value(metadata !{i32 %CROP_2_1_read}, i64 0, metadata !266), !dbg !265 ; [debug line = 20:36] [debug variable = CROP[2][1]]
  call void @llvm.dbg.value(metadata !{i32 %CROP_2_2_read}, i64 0, metadata !258), !dbg !265 ; [debug line = 20:36] [debug variable = CROP[2][2]]
  %tmp_s = icmp sgt i32 %CROP_0_0_read_1, %CROP_0_1_read_1, !dbg !274 ; [#uses=2 type=i1] [debug line = 33:5]
  %p_read1_read = select i1 %tmp_s, i32 %CROP_0_1_read_1, i32 %CROP_0_0_read_1, !dbg !274 ; [#uses=3 type=i32] [debug line = 33:5]
  %p_read_read1 = select i1 %tmp_s, i32 %CROP_0_0_read_1, i32 %CROP_0_1_read_1, !dbg !274 ; [#uses=3 type=i32] [debug line = 33:5]
  %tmp_12_0_1 = icmp sgt i32 %p_read_read1, %CROP_0_2_read_1, !dbg !274 ; [#uses=2 type=i1] [debug line = 33:5]
  %p_read2_read_read1 = select i1 %tmp_12_0_1, i32 %CROP_0_2_read_1, i32 %p_read_read1, !dbg !274 ; [#uses=3 type=i32] [debug line = 33:5]
  %p_read_read1_read2 = select i1 %tmp_12_0_1, i32 %p_read_read1, i32 %CROP_0_2_read_1, !dbg !274 ; [#uses=3 type=i32] [debug line = 33:5]
  %tmp_12_0_2 = icmp sgt i32 %p_read_read1_read2, %CROP_1_0_read_1, !dbg !274 ; [#uses=2 type=i1] [debug line = 33:5]
  %p_read3_read_read1_s = select i1 %tmp_12_0_2, i32 %CROP_1_0_read_1, i32 %p_read_read1_read2, !dbg !274 ; [#uses=3 type=i32] [debug line = 33:5]
  %p_read_read1_read2_s = select i1 %tmp_12_0_2, i32 %p_read_read1_read2, i32 %CROP_1_0_read_1, !dbg !274 ; [#uses=3 type=i32] [debug line = 33:5]
  %tmp_12_0_3 = icmp sgt i32 %p_read_read1_read2_s, %CROP_1_1_read_1, !dbg !274 ; [#uses=2 type=i1] [debug line = 33:5]
  %p_read4_read_read1_s = select i1 %tmp_12_0_3, i32 %CROP_1_1_read_1, i32 %p_read_read1_read2_s, !dbg !274 ; [#uses=3 type=i32] [debug line = 33:5]
  %p_read_read1_read2_1 = select i1 %tmp_12_0_3, i32 %p_read_read1_read2_s, i32 %CROP_1_1_read_1, !dbg !274 ; [#uses=3 type=i32] [debug line = 33:5]
  %tmp_12_0_4 = icmp sgt i32 %p_read_read1_read2_1, %CROP_1_2_read_1, !dbg !274 ; [#uses=2 type=i1] [debug line = 33:5]
  %p_read5_read_read1_s = select i1 %tmp_12_0_4, i32 %CROP_1_2_read_1, i32 %p_read_read1_read2_1, !dbg !274 ; [#uses=3 type=i32] [debug line = 33:5]
  %p_read_read1_read2_2 = select i1 %tmp_12_0_4, i32 %p_read_read1_read2_1, i32 %CROP_1_2_read_1, !dbg !274 ; [#uses=3 type=i32] [debug line = 33:5]
  %tmp_12_0_5 = icmp sgt i32 %p_read_read1_read2_2, %CROP_2_0_read_1, !dbg !274 ; [#uses=2 type=i1] [debug line = 33:5]
  %p_read6_read_read1_s = select i1 %tmp_12_0_5, i32 %CROP_2_0_read_1, i32 %p_read_read1_read2_2, !dbg !274 ; [#uses=3 type=i32] [debug line = 33:5]
  %p_read_read1_read2_3 = select i1 %tmp_12_0_5, i32 %p_read_read1_read2_2, i32 %CROP_2_0_read_1, !dbg !274 ; [#uses=3 type=i32] [debug line = 33:5]
  %tmp_12_0_6 = icmp sgt i32 %p_read_read1_read2_3, %CROP_2_1_read_1, !dbg !274 ; [#uses=2 type=i1] [debug line = 33:5]
  %sel_SEBB = select i1 %tmp_12_0_6, i32 %CROP_2_1_read_1, i32 %p_read_read1_read2_3, !dbg !274 ; [#uses=3 type=i32] [debug line = 33:5]
  %sel_SEBB9 = select i1 %tmp_12_0_6, i32 %p_read_read1_read2_3, i32 %CROP_2_1_read_1, !dbg !274 ; [#uses=3 type=i32] [debug line = 33:5]
  %tmp_12_0_7 = icmp sgt i32 %sel_SEBB9, %CROP_2_2_read_1, !dbg !274 ; [#uses=2 type=i1] [debug line = 33:5]
  %p_read8_sel_SEBB9 = select i1 %tmp_12_0_7, i32 %CROP_2_2_read_1, i32 %sel_SEBB9, !dbg !274 ; [#uses=3 type=i32] [debug line = 33:5]
  %sel_SEBB9_read8 = select i1 %tmp_12_0_7, i32 %sel_SEBB9, i32 %CROP_2_2_read_1, !dbg !274 ; [#uses=6 type=i32] [debug line = 33:5]
  %tmp_12_1 = icmp sgt i32 %p_read1_read, %p_read2_read_read1, !dbg !274 ; [#uses=2 type=i1] [debug line = 33:5]
  %p_read2_read_read1_s = select i1 %tmp_12_1, i32 %p_read2_read_read1, i32 %p_read1_read, !dbg !274 ; [#uses=3 type=i32] [debug line = 33:5]
  %p_read1_read_read2_s = select i1 %tmp_12_1, i32 %p_read1_read, i32 %p_read2_read_read1, !dbg !274 ; [#uses=3 type=i32] [debug line = 33:5]
  %tmp_12_1_1 = icmp sgt i32 %p_read1_read_read2_s, %p_read3_read_read1_s, !dbg !274 ; [#uses=2 type=i1] [debug line = 33:5]
  %sel_SEBB1 = select i1 %tmp_12_1_1, i32 %p_read3_read_read1_s, i32 %p_read1_read_read2_s, !dbg !274 ; [#uses=3 type=i32] [debug line = 33:5]
  %sel_SEBB2 = select i1 %tmp_12_1_1, i32 %p_read1_read_read2_s, i32 %p_read3_read_read1_s, !dbg !274 ; [#uses=3 type=i32] [debug line = 33:5]
  %tmp_12_1_2 = icmp sgt i32 %sel_SEBB2, %p_read4_read_read1_s, !dbg !274 ; [#uses=2 type=i1] [debug line = 33:5]
  %p_read4_read_read1_1 = select i1 %tmp_12_1_2, i32 %p_read4_read_read1_s, i32 %sel_SEBB2, !dbg !274 ; [#uses=3 type=i32] [debug line = 33:5]
  %sel_SEBB11_read4_r = select i1 %tmp_12_1_2, i32 %sel_SEBB2, i32 %p_read4_read_read1_s, !dbg !274 ; [#uses=3 type=i32] [debug line = 33:5]
  %tmp_12_1_3 = icmp sgt i32 %sel_SEBB11_read4_r, %p_read5_read_read1_s, !dbg !274 ; [#uses=2 type=i1] [debug line = 33:5]
  %sel_SEBB3 = select i1 %tmp_12_1_3, i32 %p_read5_read_read1_s, i32 %sel_SEBB11_read4_r, !dbg !274 ; [#uses=3 type=i32] [debug line = 33:5]
  %sel_SEBB4 = select i1 %tmp_12_1_3, i32 %sel_SEBB11_read4_r, i32 %p_read5_read_read1_s, !dbg !274 ; [#uses=3 type=i32] [debug line = 33:5]
  %tmp_12_1_4 = icmp sgt i32 %sel_SEBB4, %p_read6_read_read1_s, !dbg !274 ; [#uses=2 type=i1] [debug line = 33:5]
  %sel_SEBB5 = select i1 %tmp_12_1_4, i32 %p_read6_read_read1_s, i32 %sel_SEBB4, !dbg !274 ; [#uses=3 type=i32] [debug line = 33:5]
  %sel_SEBB6 = select i1 %tmp_12_1_4, i32 %sel_SEBB4, i32 %p_read6_read_read1_s, !dbg !274 ; [#uses=3 type=i32] [debug line = 33:5]
  %tmp_12_1_5 = icmp sgt i32 %sel_SEBB6, %sel_SEBB, !dbg !274 ; [#uses=2 type=i1] [debug line = 33:5]
  %sel_SEBB_sel_SEBB = select i1 %tmp_12_1_5, i32 %sel_SEBB, i32 %sel_SEBB6, !dbg !274 ; [#uses=3 type=i32] [debug line = 33:5]
  %sel_SEBB15_sel_SEBB = select i1 %tmp_12_1_5, i32 %sel_SEBB6, i32 %sel_SEBB, !dbg !274 ; [#uses=3 type=i32] [debug line = 33:5]
  %tmp_12_1_6 = icmp sgt i32 %sel_SEBB15_sel_SEBB, %p_read8_sel_SEBB9, !dbg !274 ; [#uses=2 type=i1] [debug line = 33:5]
  %p_read8_sel_SEBB9_sel = select i1 %tmp_12_1_6, i32 %p_read8_sel_SEBB9, i32 %sel_SEBB15_sel_SEBB, !dbg !274 ; [#uses=3 type=i32] [debug line = 33:5]
  %sel_SEBB15_sel_SEBB_s = select i1 %tmp_12_1_6, i32 %sel_SEBB15_sel_SEBB, i32 %p_read8_sel_SEBB9, !dbg !274 ; [#uses=3 type=i32] [debug line = 33:5]
  %tmp_12_1_7 = icmp sgt i32 %sel_SEBB15_sel_SEBB_s, %sel_SEBB9_read8, !dbg !274 ; [#uses=2 type=i1] [debug line = 33:5]
  %sel_SEBB7 = select i1 %tmp_12_1_7, i32 %sel_SEBB9_read8, i32 %sel_SEBB15_sel_SEBB_s, !dbg !274 ; [#uses=3 type=i32] [debug line = 33:5]
  %sel_SEBB17_sel_SEBB9 = select i1 %tmp_12_1_7, i32 %sel_SEBB15_sel_SEBB_s, i32 %sel_SEBB9_read8, !dbg !274 ; [#uses=3 type=i32] [debug line = 33:5]
  %tmp_12_2 = icmp sgt i32 %p_read2_read_read1_s, %sel_SEBB1, !dbg !274 ; [#uses=2 type=i1] [debug line = 33:5]
  %sel_SEBB10_read2_r = select i1 %tmp_12_2, i32 %sel_SEBB1, i32 %p_read2_read_read1_s, !dbg !274 ; [#uses=3 type=i32] [debug line = 33:5]
  %p_read2_read_read1_1 = select i1 %tmp_12_2, i32 %p_read2_read_read1_s, i32 %sel_SEBB1, !dbg !274 ; [#uses=3 type=i32] [debug line = 33:5]
  %tmp_12_2_1 = icmp sgt i32 %p_read2_read_read1_1, %p_read4_read_read1_1, !dbg !274 ; [#uses=2 type=i1] [debug line = 33:5]
  %sel_SEBB8 = select i1 %tmp_12_2_1, i32 %p_read4_read_read1_1, i32 %p_read2_read_read1_1, !dbg !274 ; [#uses=3 type=i32] [debug line = 33:5]
  %sel_SEBB10 = select i1 %tmp_12_2_1, i32 %p_read2_read_read1_1, i32 %p_read4_read_read1_1, !dbg !274 ; [#uses=3 type=i32] [debug line = 33:5]
  %tmp_12_2_2 = icmp sgt i32 %sel_SEBB10, %sel_SEBB3, !dbg !274 ; [#uses=2 type=i1] [debug line = 33:5]
  %sel_SEBB12_sel_SEBB = select i1 %tmp_12_2_2, i32 %sel_SEBB3, i32 %sel_SEBB10, !dbg !274 ; [#uses=3 type=i32] [debug line = 33:5]
  %sel_SEBB19_sel_SEBB = select i1 %tmp_12_2_2, i32 %sel_SEBB10, i32 %sel_SEBB3, !dbg !274 ; [#uses=3 type=i32] [debug line = 33:5]
  %tmp_12_2_3 = icmp sgt i32 %sel_SEBB19_sel_SEBB, %sel_SEBB5, !dbg !274 ; [#uses=2 type=i1] [debug line = 33:5]
  %sel_SEBB14_sel_SEBB1 = select i1 %tmp_12_2_3, i32 %sel_SEBB5, i32 %sel_SEBB19_sel_SEBB, !dbg !274 ; [#uses=3 type=i32] [debug line = 33:5]
  %sel_SEBB19_sel_SEBB1 = select i1 %tmp_12_2_3, i32 %sel_SEBB19_sel_SEBB, i32 %sel_SEBB5, !dbg !274 ; [#uses=3 type=i32] [debug line = 33:5]
  %tmp_12_2_4 = icmp sgt i32 %sel_SEBB19_sel_SEBB1, %sel_SEBB_sel_SEBB, !dbg !274 ; [#uses=2 type=i1] [debug line = 33:5]
  %sel_SEBB11 = select i1 %tmp_12_2_4, i32 %sel_SEBB_sel_SEBB, i32 %sel_SEBB19_sel_SEBB1, !dbg !274 ; [#uses=3 type=i32] [debug line = 33:5]
  %sel_SEBB12 = select i1 %tmp_12_2_4, i32 %sel_SEBB19_sel_SEBB1, i32 %sel_SEBB_sel_SEBB, !dbg !274 ; [#uses=3 type=i32] [debug line = 33:5]
  %tmp_12_2_5 = icmp sgt i32 %sel_SEBB12, %p_read8_sel_SEBB9_sel, !dbg !274 ; [#uses=2 type=i1] [debug line = 33:5]
  %p_read8_sel_SEBB9_sel_1 = select i1 %tmp_12_2_5, i32 %p_read8_sel_SEBB9_sel, i32 %sel_SEBB12, !dbg !274 ; [#uses=3 type=i32] [debug line = 33:5]
  %sel_SEBB21_read8_se = select i1 %tmp_12_2_5, i32 %sel_SEBB12, i32 %p_read8_sel_SEBB9_sel, !dbg !274 ; [#uses=3 type=i32] [debug line = 33:5]
  %tmp_12_2_6 = icmp sgt i32 %sel_SEBB21_read8_se, %sel_SEBB7, !dbg !274 ; [#uses=2 type=i1] [debug line = 33:5]
  %sel_SEBB13 = select i1 %tmp_12_2_6, i32 %sel_SEBB7, i32 %sel_SEBB21_read8_se, !dbg !274 ; [#uses=3 type=i32] [debug line = 33:5]
  %sel_SEBB14 = select i1 %tmp_12_2_6, i32 %sel_SEBB21_read8_se, i32 %sel_SEBB7, !dbg !274 ; [#uses=3 type=i32] [debug line = 33:5]
  %tmp_12_2_7 = icmp sgt i32 %sel_SEBB14, %sel_SEBB9_read8, !dbg !274 ; [#uses=2 type=i1] [debug line = 33:5]
  %sel_SEBB9_read8_sel = select i1 %tmp_12_2_7, i32 %sel_SEBB9_read8, i32 %sel_SEBB14, !dbg !274 ; [#uses=3 type=i32] [debug line = 33:5]
  %sel_SEBB23_sel_SEBB9 = select i1 %tmp_12_2_7, i32 %sel_SEBB14, i32 %sel_SEBB9_read8, !dbg !274 ; [#uses=3 type=i32] [debug line = 33:5]
  %tmp_12_2_8 = icmp sgt i32 %sel_SEBB23_sel_SEBB9, %sel_SEBB17_sel_SEBB9, !dbg !274 ; [#uses=2 type=i1] [debug line = 33:5]
  %sel_SEBB15 = select i1 %tmp_12_2_8, i32 %sel_SEBB23_sel_SEBB9, i32 %sel_SEBB17_sel_SEBB9, !dbg !274 ; [#uses=3 type=i32] [debug line = 33:5]
  %sel_SEBB16 = select i1 %tmp_12_2_8, i32 %sel_SEBB17_sel_SEBB9, i32 %sel_SEBB23_sel_SEBB9, !dbg !274 ; [#uses=3 type=i32] [debug line = 33:5]
  %tmp_12_3 = icmp sgt i32 %sel_SEBB10_read2_r, %sel_SEBB8, !dbg !274 ; [#uses=2 type=i1] [debug line = 33:5]
  %sel_SEBB17 = select i1 %tmp_12_3, i32 %sel_SEBB8, i32 %sel_SEBB10_read2_r, !dbg !274 ; [#uses=3 type=i32] [debug line = 33:5]
  %sel_SEBB18 = select i1 %tmp_12_3, i32 %sel_SEBB10_read2_r, i32 %sel_SEBB8, !dbg !274 ; [#uses=3 type=i32] [debug line = 33:5]
  %tmp_12_3_1 = icmp sgt i32 %sel_SEBB18, %sel_SEBB12_sel_SEBB, !dbg !274 ; [#uses=2 type=i1] [debug line = 33:5]
  %sel_SEBB12_sel_SEBB1 = select i1 %tmp_12_3_1, i32 %sel_SEBB12_sel_SEBB, i32 %sel_SEBB18, !dbg !274 ; [#uses=3 type=i32] [debug line = 33:5]
  %sel_SEBB27_sel_SEBB1 = select i1 %tmp_12_3_1, i32 %sel_SEBB18, i32 %sel_SEBB12_sel_SEBB, !dbg !274 ; [#uses=3 type=i32] [debug line = 33:5]
  %tmp_12_3_2 = icmp sgt i32 %sel_SEBB27_sel_SEBB1, %sel_SEBB14_sel_SEBB1, !dbg !274 ; [#uses=2 type=i1] [debug line = 33:5]
  %sel_SEBB19 = select i1 %tmp_12_3_2, i32 %sel_SEBB14_sel_SEBB1, i32 %sel_SEBB27_sel_SEBB1, !dbg !274 ; [#uses=3 type=i32] [debug line = 33:5]
  %sel_SEBB20 = select i1 %tmp_12_3_2, i32 %sel_SEBB27_sel_SEBB1, i32 %sel_SEBB14_sel_SEBB1, !dbg !274 ; [#uses=3 type=i32] [debug line = 33:5]
  %tmp_12_3_3 = icmp sgt i32 %sel_SEBB20, %sel_SEBB11, !dbg !274 ; [#uses=2 type=i1] [debug line = 33:5]
  %sel_SEBB20_sel_SEBB = select i1 %tmp_12_3_3, i32 %sel_SEBB11, i32 %sel_SEBB20, !dbg !274 ; [#uses=3 type=i32] [debug line = 33:5]
  %sel_SEBB29_sel_SEBB = select i1 %tmp_12_3_3, i32 %sel_SEBB20, i32 %sel_SEBB11, !dbg !274 ; [#uses=3 type=i32] [debug line = 33:5]
  %tmp_12_3_4 = icmp sgt i32 %sel_SEBB29_sel_SEBB, %p_read8_sel_SEBB9_sel_1, !dbg !274 ; [#uses=2 type=i1] [debug line = 33:5]
  %sel_SEBB21 = select i1 %tmp_12_3_4, i32 %p_read8_sel_SEBB9_sel_1, i32 %sel_SEBB29_sel_SEBB, !dbg !274 ; [#uses=3 type=i32] [debug line = 33:5]
  %sel_SEBB22 = select i1 %tmp_12_3_4, i32 %sel_SEBB29_sel_SEBB, i32 %p_read8_sel_SEBB9_sel_1, !dbg !274 ; [#uses=3 type=i32] [debug line = 33:5]
  %tmp_12_3_5 = icmp sgt i32 %sel_SEBB22, %sel_SEBB13, !dbg !274 ; [#uses=2 type=i1] [debug line = 33:5]
  %sel_SEBB22_sel_SEBB = select i1 %tmp_12_3_5, i32 %sel_SEBB13, i32 %sel_SEBB22, !dbg !274 ; [#uses=3 type=i32] [debug line = 33:5]
  %sel_SEBB31_sel_SEBB = select i1 %tmp_12_3_5, i32 %sel_SEBB22, i32 %sel_SEBB13, !dbg !274 ; [#uses=3 type=i32] [debug line = 33:5]
  %tmp_12_3_6 = icmp sgt i32 %sel_SEBB31_sel_SEBB, %sel_SEBB9_read8_sel, !dbg !274 ; [#uses=2 type=i1] [debug line = 33:5]
  %sel_SEBB23 = select i1 %tmp_12_3_6, i32 %sel_SEBB9_read8_sel, i32 %sel_SEBB31_sel_SEBB, !dbg !274 ; [#uses=3 type=i32] [debug line = 33:5]
  %sel_SEBB24 = select i1 %tmp_12_3_6, i32 %sel_SEBB31_sel_SEBB, i32 %sel_SEBB9_read8_sel, !dbg !274 ; [#uses=3 type=i32] [debug line = 33:5]
  %tmp_12_3_7 = icmp sgt i32 %sel_SEBB24, %sel_SEBB16, !dbg !274 ; [#uses=2 type=i1] [debug line = 33:5]
  %sel_SEBB25_sel_SEBB = select i1 %tmp_12_3_7, i32 %sel_SEBB16, i32 %sel_SEBB24, !dbg !274 ; [#uses=3 type=i32] [debug line = 33:5]
  %sel_SEBB33_sel_SEBB = select i1 %tmp_12_3_7, i32 %sel_SEBB24, i32 %sel_SEBB16, !dbg !274 ; [#uses=3 type=i32] [debug line = 33:5]
  %tmp_12_3_8 = icmp sgt i32 %sel_SEBB33_sel_SEBB, %sel_SEBB15, !dbg !274 ; [#uses=2 type=i1] [debug line = 33:5]
  %sel_SEBB33_sel_SEBB2 = select i1 %tmp_12_3_8, i32 %sel_SEBB33_sel_SEBB, i32 %sel_SEBB15, !dbg !274 ; [#uses=2 type=i32] [debug line = 33:5]
  %sel_SEBB24_sel_SEBB3 = select i1 %tmp_12_3_8, i32 %sel_SEBB15, i32 %sel_SEBB33_sel_SEBB, !dbg !274 ; [#uses=3 type=i32] [debug line = 33:5]
  %tmp_12_4 = icmp sgt i32 %sel_SEBB17, %sel_SEBB12_sel_SEBB1, !dbg !274 ; [#uses=2 type=i1] [debug line = 33:5]
  %sel_SEBB12_sel_SEBB1_1 = select i1 %tmp_12_4, i32 %sel_SEBB12_sel_SEBB1, i32 %sel_SEBB17, !dbg !274 ; [#uses=3 type=i32] [debug line = 33:5]
  %sel_SEBB26_sel_SEBB1 = select i1 %tmp_12_4, i32 %sel_SEBB17, i32 %sel_SEBB12_sel_SEBB1, !dbg !274 ; [#uses=3 type=i32] [debug line = 33:5]
  %tmp_12_4_1 = icmp sgt i32 %sel_SEBB26_sel_SEBB1, %sel_SEBB19, !dbg !274 ; [#uses=2 type=i1] [debug line = 33:5]
  %sel_SEBB25 = select i1 %tmp_12_4_1, i32 %sel_SEBB19, i32 %sel_SEBB26_sel_SEBB1, !dbg !274 ; [#uses=3 type=i32] [debug line = 33:5]
  %sel_SEBB26 = select i1 %tmp_12_4_1, i32 %sel_SEBB26_sel_SEBB1, i32 %sel_SEBB19, !dbg !274 ; [#uses=3 type=i32] [debug line = 33:5]
  %tmp_12_4_2 = icmp sgt i32 %sel_SEBB26, %sel_SEBB20_sel_SEBB, !dbg !274 ; [#uses=2 type=i1] [debug line = 33:5]
  %sel_SEBB20_sel_SEBB2 = select i1 %tmp_12_4_2, i32 %sel_SEBB20_sel_SEBB, i32 %sel_SEBB26, !dbg !274 ; [#uses=3 type=i32] [debug line = 33:5]
  %sel_SEBB35_sel_SEBB2 = select i1 %tmp_12_4_2, i32 %sel_SEBB26, i32 %sel_SEBB20_sel_SEBB, !dbg !274 ; [#uses=3 type=i32] [debug line = 33:5]
  %tmp_12_4_3 = icmp sgt i32 %sel_SEBB35_sel_SEBB2, %sel_SEBB21, !dbg !274 ; [#uses=2 type=i1] [debug line = 33:5]
  %sel_SEBB30_sel_SEBB3 = select i1 %tmp_12_4_3, i32 %sel_SEBB21, i32 %sel_SEBB35_sel_SEBB2, !dbg !274 ; [#uses=3 type=i32] [debug line = 33:5]
  %sel_SEBB35_sel_SEBB2_1 = select i1 %tmp_12_4_3, i32 %sel_SEBB35_sel_SEBB2, i32 %sel_SEBB21, !dbg !274 ; [#uses=3 type=i32] [debug line = 33:5]
  %tmp_12_4_4 = icmp sgt i32 %sel_SEBB35_sel_SEBB2_1, %sel_SEBB22_sel_SEBB, !dbg !274 ; [#uses=2 type=i1] [debug line = 33:5]
  %sel_SEBB27 = select i1 %tmp_12_4_4, i32 %sel_SEBB22_sel_SEBB, i32 %sel_SEBB35_sel_SEBB2_1, !dbg !274 ; [#uses=3 type=i32] [debug line = 33:5]
  %sel_SEBB28 = select i1 %tmp_12_4_4, i32 %sel_SEBB35_sel_SEBB2_1, i32 %sel_SEBB22_sel_SEBB, !dbg !274 ; [#uses=3 type=i32] [debug line = 33:5]
  %tmp_12_4_5 = icmp sgt i32 %sel_SEBB28, %sel_SEBB23, !dbg !274 ; [#uses=2 type=i1] [debug line = 33:5]
  %sel_SEBB32_sel_SEBB = select i1 %tmp_12_4_5, i32 %sel_SEBB23, i32 %sel_SEBB28, !dbg !274 ; [#uses=3 type=i32] [debug line = 33:5]
  %sel_SEBB37_sel_SEBB = select i1 %tmp_12_4_5, i32 %sel_SEBB28, i32 %sel_SEBB23, !dbg !274 ; [#uses=3 type=i32] [debug line = 33:5]
  %tmp_12_4_6 = icmp sgt i32 %sel_SEBB37_sel_SEBB, %sel_SEBB25_sel_SEBB, !dbg !274 ; [#uses=2 type=i1] [debug line = 33:5]
  %sel_SEBB25_sel_SEBB3 = select i1 %tmp_12_4_6, i32 %sel_SEBB25_sel_SEBB, i32 %sel_SEBB37_sel_SEBB, !dbg !274 ; [#uses=3 type=i32] [debug line = 33:5]
  %sel_SEBB37_sel_SEBB3 = select i1 %tmp_12_4_6, i32 %sel_SEBB37_sel_SEBB, i32 %sel_SEBB25_sel_SEBB, !dbg !274 ; [#uses=3 type=i32] [debug line = 33:5]
  %tmp_12_4_7 = icmp sgt i32 %sel_SEBB37_sel_SEBB3, %sel_SEBB24_sel_SEBB3, !dbg !274 ; [#uses=2 type=i1] [debug line = 33:5]
  %sel_SEBB29 = select i1 %tmp_12_4_7, i32 %sel_SEBB24_sel_SEBB3, i32 %sel_SEBB37_sel_SEBB3, !dbg !274 ; [#uses=3 type=i32] [debug line = 33:5]
  %sel_SEBB30 = select i1 %tmp_12_4_7, i32 %sel_SEBB37_sel_SEBB3, i32 %sel_SEBB24_sel_SEBB3, !dbg !274 ; [#uses=2 type=i32] [debug line = 33:5]
  %tmp_12_4_8 = icmp sgt i32 %sel_SEBB30, %sel_SEBB33_sel_SEBB2, !dbg !274 ; [#uses=1 type=i1] [debug line = 33:5]
  %sel_SEBB33_sel_SEBB2_1 = select i1 %tmp_12_4_8, i32 %sel_SEBB33_sel_SEBB2, i32 %sel_SEBB30, !dbg !274 ; [#uses=2 type=i32] [debug line = 33:5]
  %tmp_12_5 = icmp sgt i32 %sel_SEBB12_sel_SEBB1_1, %sel_SEBB25, !dbg !274 ; [#uses=2 type=i1] [debug line = 33:5]
  %sel_SEBB31 = select i1 %tmp_12_5, i32 %sel_SEBB25, i32 %sel_SEBB12_sel_SEBB1_1, !dbg !274 ; [#uses=3 type=i32] [debug line = 33:5]
  %sel_SEBB32 = select i1 %tmp_12_5, i32 %sel_SEBB12_sel_SEBB1_1, i32 %sel_SEBB25, !dbg !274 ; [#uses=3 type=i32] [debug line = 33:5]
  %tmp_12_5_1 = icmp sgt i32 %sel_SEBB32, %sel_SEBB20_sel_SEBB2, !dbg !274 ; [#uses=2 type=i1] [debug line = 33:5]
  %sel_SEBB20_sel_SEBB2_1 = select i1 %tmp_12_5_1, i32 %sel_SEBB20_sel_SEBB2, i32 %sel_SEBB32, !dbg !274 ; [#uses=3 type=i32] [debug line = 33:5]
  %sel_SEBB41_sel_SEBB2 = select i1 %tmp_12_5_1, i32 %sel_SEBB32, i32 %sel_SEBB20_sel_SEBB2, !dbg !274 ; [#uses=3 type=i32] [debug line = 33:5]
  %tmp_12_5_2 = icmp sgt i32 %sel_SEBB41_sel_SEBB2, %sel_SEBB30_sel_SEBB3, !dbg !274 ; [#uses=2 type=i1] [debug line = 33:5]
  %sel_SEBB33 = select i1 %tmp_12_5_2, i32 %sel_SEBB30_sel_SEBB3, i32 %sel_SEBB41_sel_SEBB2, !dbg !274 ; [#uses=3 type=i32] [debug line = 33:5]
  %sel_SEBB34 = select i1 %tmp_12_5_2, i32 %sel_SEBB41_sel_SEBB2, i32 %sel_SEBB30_sel_SEBB3, !dbg !274 ; [#uses=3 type=i32] [debug line = 33:5]
  %tmp_12_5_3 = icmp sgt i32 %sel_SEBB34, %sel_SEBB27, !dbg !274 ; [#uses=2 type=i1] [debug line = 33:5]
  %sel_SEBB36_sel_SEBB = select i1 %tmp_12_5_3, i32 %sel_SEBB27, i32 %sel_SEBB34, !dbg !274 ; [#uses=3 type=i32] [debug line = 33:5]
  %sel_SEBB43_sel_SEBB = select i1 %tmp_12_5_3, i32 %sel_SEBB34, i32 %sel_SEBB27, !dbg !274 ; [#uses=3 type=i32] [debug line = 33:5]
  %tmp_12_5_4 = icmp sgt i32 %sel_SEBB43_sel_SEBB, %sel_SEBB32_sel_SEBB, !dbg !274 ; [#uses=2 type=i1] [debug line = 33:5]
  %sel_SEBB32_sel_SEBB3 = select i1 %tmp_12_5_4, i32 %sel_SEBB32_sel_SEBB, i32 %sel_SEBB43_sel_SEBB, !dbg !274 ; [#uses=3 type=i32] [debug line = 33:5]
  %sel_SEBB43_sel_SEBB3 = select i1 %tmp_12_5_4, i32 %sel_SEBB43_sel_SEBB, i32 %sel_SEBB32_sel_SEBB, !dbg !274 ; [#uses=3 type=i32] [debug line = 33:5]
  %tmp_12_5_5 = icmp sgt i32 %sel_SEBB43_sel_SEBB3, %sel_SEBB25_sel_SEBB3, !dbg !274 ; [#uses=2 type=i1] [debug line = 33:5]
  %sel_SEBB35 = select i1 %tmp_12_5_5, i32 %sel_SEBB25_sel_SEBB3, i32 %sel_SEBB43_sel_SEBB3, !dbg !274 ; [#uses=3 type=i32] [debug line = 33:5]
  %sel_SEBB36 = select i1 %tmp_12_5_5, i32 %sel_SEBB43_sel_SEBB3, i32 %sel_SEBB25_sel_SEBB3, !dbg !274 ; [#uses=3 type=i32] [debug line = 33:5]
  %tmp_12_5_6 = icmp sgt i32 %sel_SEBB36, %sel_SEBB29, !dbg !274 ; [#uses=2 type=i1] [debug line = 33:5]
  %sel_SEBB38_sel_SEBB = select i1 %tmp_12_5_6, i32 %sel_SEBB29, i32 %sel_SEBB36, !dbg !274 ; [#uses=3 type=i32] [debug line = 33:5]
  %sel_SEBB45_sel_SEBB = select i1 %tmp_12_5_6, i32 %sel_SEBB36, i32 %sel_SEBB29, !dbg !274 ; [#uses=2 type=i32] [debug line = 33:5]
  %tmp_12_5_7 = icmp sgt i32 %sel_SEBB45_sel_SEBB, %sel_SEBB33_sel_SEBB2_1, !dbg !274 ; [#uses=1 type=i1] [debug line = 33:5]
  %sel_SEBB37 = select i1 %tmp_12_5_7, i32 %sel_SEBB33_sel_SEBB2_1, i32 %sel_SEBB45_sel_SEBB, !dbg !274 ; [#uses=2 type=i32] [debug line = 33:5]
  %tmp_12_6 = icmp sgt i32 %sel_SEBB31, %sel_SEBB20_sel_SEBB2_1, !dbg !274 ; [#uses=2 type=i1] [debug line = 33:5]
  %sel_SEBB38 = select i1 %tmp_12_6, i32 %sel_SEBB20_sel_SEBB2_1, i32 %sel_SEBB31, !dbg !274 ; [#uses=3 type=i32] [debug line = 33:5]
  %sel_SEBB39 = select i1 %tmp_12_6, i32 %sel_SEBB31, i32 %sel_SEBB20_sel_SEBB2_1, !dbg !274 ; [#uses=3 type=i32] [debug line = 33:5]
  %tmp_12_6_1 = icmp sgt i32 %sel_SEBB39, %sel_SEBB33, !dbg !274 ; [#uses=2 type=i1] [debug line = 33:5]
  %sel_SEBB42_sel_SEBB = select i1 %tmp_12_6_1, i32 %sel_SEBB33, i32 %sel_SEBB39, !dbg !274 ; [#uses=3 type=i32] [debug line = 33:5]
  %sel_SEBB51_sel_SEBB = select i1 %tmp_12_6_1, i32 %sel_SEBB39, i32 %sel_SEBB33, !dbg !274 ; [#uses=3 type=i32] [debug line = 33:5]
  %tmp_12_6_2 = icmp sgt i32 %sel_SEBB51_sel_SEBB, %sel_SEBB36_sel_SEBB, !dbg !274 ; [#uses=2 type=i1] [debug line = 33:5]
  %sel_SEBB36_sel_SEBB4 = select i1 %tmp_12_6_2, i32 %sel_SEBB36_sel_SEBB, i32 %sel_SEBB51_sel_SEBB, !dbg !274 ; [#uses=3 type=i32] [debug line = 33:5]
  %sel_SEBB51_sel_SEBB4 = select i1 %tmp_12_6_2, i32 %sel_SEBB51_sel_SEBB, i32 %sel_SEBB36_sel_SEBB, !dbg !274 ; [#uses=3 type=i32] [debug line = 33:5]
  %tmp_12_6_3 = icmp sgt i32 %sel_SEBB51_sel_SEBB4, %sel_SEBB32_sel_SEBB3, !dbg !274 ; [#uses=2 type=i1] [debug line = 33:5]
  %sel_SEBB40 = select i1 %tmp_12_6_3, i32 %sel_SEBB32_sel_SEBB3, i32 %sel_SEBB51_sel_SEBB4, !dbg !274 ; [#uses=3 type=i32] [debug line = 33:5]
  %sel_SEBB41 = select i1 %tmp_12_6_3, i32 %sel_SEBB51_sel_SEBB4, i32 %sel_SEBB32_sel_SEBB3, !dbg !274 ; [#uses=3 type=i32] [debug line = 33:5]
  %tmp_12_6_4 = icmp sgt i32 %sel_SEBB41, %sel_SEBB35, !dbg !274 ; [#uses=2 type=i1] [debug line = 33:5]
  %sel_SEBB44_sel_SEBB = select i1 %tmp_12_6_4, i32 %sel_SEBB35, i32 %sel_SEBB41, !dbg !274 ; [#uses=3 type=i32] [debug line = 33:5]
  %sel_SEBB53_sel_SEBB = select i1 %tmp_12_6_4, i32 %sel_SEBB41, i32 %sel_SEBB35, !dbg !274 ; [#uses=3 type=i32] [debug line = 33:5]
  %tmp_12_6_5 = icmp sgt i32 %sel_SEBB53_sel_SEBB, %sel_SEBB38_sel_SEBB, !dbg !274 ; [#uses=2 type=i1] [debug line = 33:5]
  %sel_SEBB38_sel_SEBB4 = select i1 %tmp_12_6_5, i32 %sel_SEBB38_sel_SEBB, i32 %sel_SEBB53_sel_SEBB, !dbg !274 ; [#uses=3 type=i32] [debug line = 33:5]
  %sel_SEBB53_sel_SEBB4 = select i1 %tmp_12_6_5, i32 %sel_SEBB53_sel_SEBB, i32 %sel_SEBB38_sel_SEBB, !dbg !274 ; [#uses=2 type=i32] [debug line = 33:5]
  %tmp_12_6_6 = icmp sgt i32 %sel_SEBB53_sel_SEBB4, %sel_SEBB37, !dbg !274 ; [#uses=1 type=i1] [debug line = 33:5]
  %sel_SEBB42 = select i1 %tmp_12_6_6, i32 %sel_SEBB37, i32 %sel_SEBB53_sel_SEBB4, !dbg !274 ; [#uses=2 type=i32] [debug line = 33:5]
  %tmp_12_7 = icmp sgt i32 %sel_SEBB38, %sel_SEBB42_sel_SEBB, !dbg !274 ; [#uses=2 type=i1] [debug line = 33:5]
  %sel_SEBB42_sel_SEBB5 = select i1 %tmp_12_7, i32 %sel_SEBB42_sel_SEBB, i32 %sel_SEBB38, !dbg !274 ; [#uses=2 type=i32] [debug line = 33:5]
  %sel_SEBB50_sel_SEBB4 = select i1 %tmp_12_7, i32 %sel_SEBB38, i32 %sel_SEBB42_sel_SEBB, !dbg !274 ; [#uses=3 type=i32] [debug line = 33:5]
  %tmp_12_7_1 = icmp sgt i32 %sel_SEBB50_sel_SEBB4, %sel_SEBB36_sel_SEBB4, !dbg !274 ; [#uses=2 type=i1] [debug line = 33:5]
  %sel_SEBB43 = select i1 %tmp_12_7_1, i32 %sel_SEBB36_sel_SEBB4, i32 %sel_SEBB50_sel_SEBB4, !dbg !274 ; [#uses=2 type=i32] [debug line = 33:5]
  %sel_SEBB44 = select i1 %tmp_12_7_1, i32 %sel_SEBB50_sel_SEBB4, i32 %sel_SEBB36_sel_SEBB4, !dbg !274 ; [#uses=3 type=i32] [debug line = 33:5]
  %tmp_12_7_2 = icmp sgt i32 %sel_SEBB44, %sel_SEBB40, !dbg !274 ; [#uses=2 type=i1] [debug line = 33:5]
  %sel_SEBB52_sel_SEBB = select i1 %tmp_12_7_2, i32 %sel_SEBB40, i32 %sel_SEBB44, !dbg !274 ; [#uses=2 type=i32] [debug line = 33:5]
  %sel_SEBB57_sel_SEBB = select i1 %tmp_12_7_2, i32 %sel_SEBB44, i32 %sel_SEBB40, !dbg !274 ; [#uses=3 type=i32] [debug line = 33:5]
  %tmp_12_7_3 = icmp sgt i32 %sel_SEBB57_sel_SEBB, %sel_SEBB44_sel_SEBB, !dbg !274 ; [#uses=2 type=i1] [debug line = 33:5]
  %sel_SEBB44_sel_SEBB5 = select i1 %tmp_12_7_3, i32 %sel_SEBB44_sel_SEBB, i32 %sel_SEBB57_sel_SEBB, !dbg !274 ; [#uses=2 type=i32] [debug line = 33:5]
  %sel_SEBB57_sel_SEBB5 = select i1 %tmp_12_7_3, i32 %sel_SEBB57_sel_SEBB, i32 %sel_SEBB44_sel_SEBB, !dbg !274 ; [#uses=3 type=i32] [debug line = 33:5]
  %tmp_12_7_4 = icmp sgt i32 %sel_SEBB57_sel_SEBB5, %sel_SEBB38_sel_SEBB4, !dbg !274 ; [#uses=2 type=i1] [debug line = 33:5]
  %sel_SEBB45 = select i1 %tmp_12_7_4, i32 %sel_SEBB38_sel_SEBB4, i32 %sel_SEBB57_sel_SEBB5, !dbg !274 ; [#uses=2 type=i32] [debug line = 33:5]
  %sel_SEBB46 = select i1 %tmp_12_7_4, i32 %sel_SEBB57_sel_SEBB5, i32 %sel_SEBB38_sel_SEBB4, !dbg !274 ; [#uses=2 type=i32] [debug line = 33:5]
  %tmp_12_7_5 = icmp sgt i32 %sel_SEBB46, %sel_SEBB42, !dbg !274 ; [#uses=1 type=i1] [debug line = 33:5]
  %sel_SEBB54_sel_SEBB = select i1 %tmp_12_7_5, i32 %sel_SEBB42, i32 %sel_SEBB46, !dbg !274 ; [#uses=2 type=i32] [debug line = 33:5]
  %tmp_12_8 = icmp sgt i32 %sel_SEBB42_sel_SEBB5, %sel_SEBB43, !dbg !274 ; [#uses=1 type=i1] [debug line = 33:5]
  %sel_SEBB42_sel_SEBB5_1 = select i1 %tmp_12_8, i32 %sel_SEBB42_sel_SEBB5, i32 %sel_SEBB43, !dbg !274 ; [#uses=2 type=i32] [debug line = 33:5]
  %tmp_12_8_1 = icmp sgt i32 %sel_SEBB42_sel_SEBB5_1, %sel_SEBB52_sel_SEBB, !dbg !274 ; [#uses=1 type=i1] [debug line = 33:5]
  %sel_SEBB47 = select i1 %tmp_12_8_1, i32 %sel_SEBB42_sel_SEBB5_1, i32 %sel_SEBB52_sel_SEBB, !dbg !274 ; [#uses=2 type=i32] [debug line = 33:5]
  %tmp_12_8_2 = icmp sgt i32 %sel_SEBB47, %sel_SEBB44_sel_SEBB5, !dbg !274 ; [#uses=1 type=i1] [debug line = 33:5]
  %sel_SEBB48 = select i1 %tmp_12_8_2, i32 %sel_SEBB47, i32 %sel_SEBB44_sel_SEBB5, !dbg !274 ; [#uses=2 type=i32] [debug line = 33:5]
  %tmp_12_8_3 = icmp sgt i32 %sel_SEBB48, %sel_SEBB45, !dbg !274 ; [#uses=1 type=i1] [debug line = 33:5]
  %sel_SEBB63_sel_SEBB = select i1 %tmp_12_8_3, i32 %sel_SEBB48, i32 %sel_SEBB45, !dbg !274 ; [#uses=2 type=i32] [debug line = 33:5]
  %tmp_12_8_4 = icmp sgt i32 %sel_SEBB63_sel_SEBB, %sel_SEBB54_sel_SEBB, !dbg !274 ; [#uses=1 type=i1] [debug line = 33:5]
  %sel_SEBB54_sel_SEBB5 = select i1 %tmp_12_8_4, i32 %sel_SEBB54_sel_SEBB, i32 %sel_SEBB63_sel_SEBB, !dbg !274 ; [#uses=1 type=i32] [debug line = 33:5]
  ret i32 %sel_SEBB54_sel_SEBB5, !dbg !280        ; [debug line = 41:2]
}

; [#uses=1]
define weak i1 @_ssdm_op_WriteResp.m_axi.i32P(i32*) {
entry:
  ret i1 true
}

; [#uses=1]
define weak i1 @_ssdm_op_WriteReq.m_axi.i32P(i32*, i32) {
entry:
  ret i1 true
}

; [#uses=1]
define weak void @_ssdm_op_Write.m_axi.i32P(i32*, i32, i4) {
entry:
  ret void
}

; [#uses=2]
define weak void @_ssdm_op_Write.ap_fifo.volatile.i32P(i32*, i32) {
entry:
  %empty = call i32 @_autotb_FifoWrite_i32(i32* %0, i32 %1) ; [#uses=0 type=i32]
  ret void
}

; [#uses=1]
define weak void @_ssdm_op_Write.ap_fifo.i32P(i32*, i32) {
entry:
  %empty = call i32 @_autotb_FifoWrite_i32(i32* %0, i32 %1) ; [#uses=0 type=i32]
  ret void
}

; [#uses=1]
define weak void @_ssdm_op_SpecTopModule(...) {
entry:
  ret void
}

; [#uses=3]
define weak i32 @_ssdm_op_SpecRegionEnd(...) {
entry:
  ret i32 0
}

; [#uses=3]
define weak i32 @_ssdm_op_SpecRegionBegin(...) {
entry:
  ret i32 0
}

; [#uses=3]
define weak void @_ssdm_op_SpecPipeline(...) nounwind {
entry:
  ret void
}

; [#uses=3]
define weak i32 @_ssdm_op_SpecLoopTripCount(...) {
entry:
  ret i32 0
}

; [#uses=4]
define weak void @_ssdm_op_SpecLoopName(...) nounwind {
entry:
  ret void
}

; [#uses=23]
define weak void @_ssdm_op_SpecInterface(...) nounwind {
entry:
  ret void
}

; [#uses=1]
define weak void @_ssdm_op_SpecDataflowPipeline(...) nounwind {
entry:
  ret void
}

; [#uses=3]
define weak i32 @_ssdm_op_SpecChannel(...) {
entry:
  ret i32 0
}

; [#uses=1]
define weak void @_ssdm_op_SpecBitsMap(...) {
entry:
  ret void
}

; [#uses=1]
define weak i1 @_ssdm_op_ReadReq.m_axi.i32P(i32*, i32) {
entry:
  ret i1 true
}

; [#uses=2]
define weak i32 @_ssdm_op_Read.s_axilite.i32(i32) {
entry:
  ret i32 %0
}

; [#uses=1]
define weak i32 @_ssdm_op_Read.m_axi.i32P(i32*) {
entry:
  %empty = load i32* %0                           ; [#uses=1 type=i32]
  ret i32 %empty
}

; [#uses=2]
define weak i32 @_ssdm_op_Read.ap_fifo.volatile.i32P(i32*) {
entry:
  %empty = call i32 @_autotb_FifoRead_i32(i32* %0) ; [#uses=1 type=i32]
  ret i32 %empty
}

; [#uses=1]
define weak i32 @_ssdm_op_Read.ap_fifo.i32P(i32*) {
entry:
  %empty = call i32 @_autotb_FifoRead_i32(i32* %0) ; [#uses=1 type=i32]
  ret i32 %empty
}

; [#uses=11]
define weak i32 @_ssdm_op_Read.ap_auto.i32(i32) {
entry:
  ret i32 %0
}

; [#uses=3]
define weak i9 @_ssdm_op_PartSelect.i9.i10.i32.i32(i10, i32, i32) nounwind readnone {
entry:
  %empty = call i10 @llvm.part.select.i10(i10 %0, i32 %1, i32 %2) ; [#uses=1 type=i10]
  %empty_13 = trunc i10 %empty to i9              ; [#uses=1 type=i9]
  ret i9 %empty_13
}

; [#uses=2]
define weak i30 @_ssdm_op_PartSelect.i30.i32.i32.i32(i32, i32, i32) nounwind readnone {
entry:
  %empty = call i32 @llvm.part.select.i32(i32 %0, i32 %1, i32 %2) ; [#uses=1 type=i32]
  %empty_14 = trunc i32 %empty to i30             ; [#uses=1 type=i30]
  ret i30 %empty_14
}

; [#uses=2]
declare i32 @_autotb_FifoWrite_i32(i32*, i32)

; [#uses=2]
declare i32 @_autotb_FifoRead_i32(i32*)

!opencl.kernels = !{!0, !7, !10, !16, !20, !24, !24, !30, !34}
!hls.encrypted.func = !{}
!llvm.map.gv = !{}
!axi4.master.portmap = !{!37}
!axi4.slave.bundlemap = !{!38, !39}

!0 = metadata !{null, metadata !1, metadata !2, metadata !3, metadata !4, metadata !5, metadata !6}
!1 = metadata !{metadata !"kernel_arg_addr_space", i32 0, i32 1}
!2 = metadata !{metadata !"kernel_arg_access_qual", metadata !"none", metadata !"none"}
!3 = metadata !{metadata !"kernel_arg_type", metadata !"hls::stream<Input_Type> &", metadata !"Input_Type*"}
!4 = metadata !{metadata !"kernel_arg_type_qual", metadata !"", metadata !""}
!5 = metadata !{metadata !"kernel_arg_name", metadata !"in_stream", metadata !"in_array"}
!6 = metadata !{metadata !"reqd_work_group_size", i32 1, i32 1, i32 1}
!7 = metadata !{null, metadata !1, metadata !2, metadata !8, metadata !4, metadata !9, metadata !6}
!8 = metadata !{metadata !"kernel_arg_type", metadata !"hls::stream<Output_Type> &", metadata !"Output_Type*"}
!9 = metadata !{metadata !"kernel_arg_name", metadata !"out_stream", metadata !"out_array"}
!10 = metadata !{null, metadata !11, metadata !12, metadata !13, metadata !14, metadata !15, metadata !6}
!11 = metadata !{metadata !"kernel_arg_addr_space", i32 1}
!12 = metadata !{metadata !"kernel_arg_access_qual", metadata !"none"}
!13 = metadata !{metadata !"kernel_arg_type", metadata !"Input_Type [3]*"}
!14 = metadata !{metadata !"kernel_arg_type_qual", metadata !""}
!15 = metadata !{metadata !"kernel_arg_name", metadata !"CROP"}
!16 = metadata !{null, metadata !17, metadata !2, metadata !18, metadata !4, metadata !19, metadata !6}
!17 = metadata !{metadata !"kernel_arg_addr_space", i32 0, i32 0}
!18 = metadata !{metadata !"kernel_arg_type", metadata !"hls::stream<Input_Type> &", metadata !"hls::stream<Output_Type> &"}
!19 = metadata !{metadata !"kernel_arg_name", metadata !"in_stream", metadata !"out_stream"}
!20 = metadata !{null, metadata !21, metadata !2, metadata !22, metadata !4, metadata !23, metadata !6}
!21 = metadata !{metadata !"kernel_arg_addr_space", i32 1, i32 1}
!22 = metadata !{metadata !"kernel_arg_type", metadata !"Input_Type*", metadata !"Output_Type*"}
!23 = metadata !{metadata !"kernel_arg_name", metadata !"in_array", metadata !"out_array"}
!24 = metadata !{null, metadata !25, metadata !26, metadata !27, metadata !28, metadata !29, metadata !6}
!25 = metadata !{metadata !"kernel_arg_addr_space"}
!26 = metadata !{metadata !"kernel_arg_access_qual"}
!27 = metadata !{metadata !"kernel_arg_type"}
!28 = metadata !{metadata !"kernel_arg_type_qual"}
!29 = metadata !{metadata !"kernel_arg_name"}
!30 = metadata !{null, metadata !31, metadata !12, metadata !32, metadata !14, metadata !33, metadata !6}
!31 = metadata !{metadata !"kernel_arg_addr_space", i32 0}
!32 = metadata !{metadata !"kernel_arg_type", metadata !"int &"}
!33 = metadata !{metadata !"kernel_arg_name", metadata !"dout"}
!34 = metadata !{null, metadata !31, metadata !12, metadata !35, metadata !14, metadata !36, metadata !6}
!35 = metadata !{metadata !"kernel_arg_type", metadata !"const int &"}
!36 = metadata !{metadata !"kernel_arg_name", metadata !"din"}
!37 = metadata !{metadata !"gmem", metadata !"in_array", metadata !"READONLY", metadata !"out_array", metadata !"WRITEONLY"}
!38 = metadata !{metadata !"in_array", metadata !""}
!39 = metadata !{metadata !"out_array", metadata !""}
!40 = metadata !{i32 790531, metadata !41, metadata !"in_stream.V", null, i32 3, metadata !107, i32 0, i32 0} ; [ DW_TAG_arg_variable_field ]
!41 = metadata !{i32 786689, metadata !42, metadata !"in_stream", metadata !43, i32 16777219, metadata !46, i32 0, i32 0} ; [ DW_TAG_arg_variable ]
!42 = metadata !{i32 786478, i32 0, metadata !43, metadata !"write_pixels_to_stream", metadata !"write_pixels_to_stream", metadata !"_Z22write_pixels_to_streamRN3hls6streamIiEEPi", metadata !43, i32 3, metadata !44, i1 false, i1 true, i32 0, i32 0, null, i32 256, i1 false, null, null, null, metadata !57, i32 4} ; [ DW_TAG_subprogram ]
!43 = metadata !{i32 786473, metadata !"MedianFilter/median.cpp", metadata !"/home/kinka1/HLS", null} ; [ DW_TAG_file_type ]
!44 = metadata !{i32 786453, i32 0, metadata !"", i32 0, i32 0, i64 0, i64 0, i64 0, i32 0, null, metadata !45, i32 0, i32 0} ; [ DW_TAG_subroutine_type ]
!45 = metadata !{null, metadata !46, metadata !105}
!46 = metadata !{i32 786448, null, null, null, i32 0, i64 0, i64 0, i64 0, i32 0, metadata !47} ; [ DW_TAG_reference_type ]
!47 = metadata !{i32 786434, metadata !48, metadata !"stream<int>", metadata !49, i32 79, i64 32, i64 32, i32 0, i32 0, null, metadata !50, i32 0, null, metadata !103} ; [ DW_TAG_class_type ]
!48 = metadata !{i32 786489, null, metadata !"hls", metadata !49, i32 69} ; [ DW_TAG_namespace ]
!49 = metadata !{i32 786473, metadata !"/opt/Xilinx/Vivado/2017.4/common/technology/autopilot/hls_stream.h", metadata !"/home/kinka1/HLS", null} ; [ DW_TAG_file_type ]
!50 = metadata !{metadata !51, metadata !53, metadata !59, metadata !65, metadata !70, metadata !73, metadata !77, metadata !82, metadata !87, metadata !88, metadata !89, metadata !92, metadata !95, metadata !96, metadata !99}
!51 = metadata !{i32 786445, metadata !47, metadata !"V", metadata !49, i32 163, i64 32, i64 32, i64 0, i32 0, metadata !52} ; [ DW_TAG_member ]
!52 = metadata !{i32 786468, null, metadata !"int", null, i32 0, i64 32, i64 32, i64 0, i32 0, i32 5} ; [ DW_TAG_base_type ]
!53 = metadata !{i32 786478, i32 0, metadata !47, metadata !"stream", metadata !"stream", metadata !"", metadata !49, i32 83, metadata !54, i1 false, i1 false, i32 0, i32 0, null, i32 256, i1 false, null, null, i32 0, metadata !57, i32 83} ; [ DW_TAG_subprogram ]
!54 = metadata !{i32 786453, i32 0, metadata !"", i32 0, i32 0, i64 0, i64 0, i64 0, i32 0, null, metadata !55, i32 0, i32 0} ; [ DW_TAG_subroutine_type ]
!55 = metadata !{null, metadata !56}
!56 = metadata !{i32 786447, i32 0, metadata !"", i32 0, i32 0, i64 64, i64 64, i64 0, i32 64, metadata !47} ; [ DW_TAG_pointer_type ]
!57 = metadata !{metadata !58}
!58 = metadata !{i32 786468}                      ; [ DW_TAG_base_type ]
!59 = metadata !{i32 786478, i32 0, metadata !47, metadata !"stream", metadata !"stream", metadata !"", metadata !49, i32 86, metadata !60, i1 false, i1 false, i32 0, i32 0, null, i32 256, i1 false, null, null, i32 0, metadata !57, i32 86} ; [ DW_TAG_subprogram ]
!60 = metadata !{i32 786453, i32 0, metadata !"", i32 0, i32 0, i64 0, i64 0, i64 0, i32 0, null, metadata !61, i32 0, i32 0} ; [ DW_TAG_subroutine_type ]
!61 = metadata !{null, metadata !56, metadata !62}
!62 = metadata !{i32 786447, null, metadata !"", null, i32 0, i64 64, i64 64, i64 0, i32 0, metadata !63} ; [ DW_TAG_pointer_type ]
!63 = metadata !{i32 786470, null, metadata !"", null, i32 0, i64 0, i64 0, i64 0, i32 0, metadata !64} ; [ DW_TAG_const_type ]
!64 = metadata !{i32 786468, null, metadata !"char", null, i32 0, i64 8, i64 8, i64 0, i32 0, i32 6} ; [ DW_TAG_base_type ]
!65 = metadata !{i32 786478, i32 0, metadata !47, metadata !"stream", metadata !"stream", metadata !"", metadata !49, i32 91, metadata !66, i1 false, i1 false, i32 0, i32 0, null, i32 257, i1 false, null, null, i32 0, metadata !57, i32 91} ; [ DW_TAG_subprogram ]
!66 = metadata !{i32 786453, i32 0, metadata !"", i32 0, i32 0, i64 0, i64 0, i64 0, i32 0, null, metadata !67, i32 0, i32 0} ; [ DW_TAG_subroutine_type ]
!67 = metadata !{null, metadata !56, metadata !68}
!68 = metadata !{i32 786448, null, null, null, i32 0, i64 0, i64 0, i64 0, i32 0, metadata !69} ; [ DW_TAG_reference_type ]
!69 = metadata !{i32 786470, null, metadata !"", null, i32 0, i64 0, i64 0, i64 0, i32 0, metadata !47} ; [ DW_TAG_const_type ]
!70 = metadata !{i32 786478, i32 0, metadata !47, metadata !"operator=", metadata !"operator=", metadata !"_ZN3hls6streamIiEaSERKS1_", metadata !49, i32 94, metadata !71, i1 false, i1 false, i32 0, i32 0, null, i32 257, i1 false, null, null, i32 0, metadata !57, i32 94} ; [ DW_TAG_subprogram ]
!71 = metadata !{i32 786453, i32 0, metadata !"", i32 0, i32 0, i64 0, i64 0, i64 0, i32 0, null, metadata !72, i32 0, i32 0} ; [ DW_TAG_subroutine_type ]
!72 = metadata !{metadata !46, metadata !56, metadata !68}
!73 = metadata !{i32 786478, i32 0, metadata !47, metadata !"operator>>", metadata !"operator>>", metadata !"_ZN3hls6streamIiErsERi", metadata !49, i32 101, metadata !74, i1 false, i1 false, i32 0, i32 0, null, i32 256, i1 false, null, null, i32 0, metadata !57, i32 101} ; [ DW_TAG_subprogram ]
!74 = metadata !{i32 786453, i32 0, metadata !"", i32 0, i32 0, i64 0, i64 0, i64 0, i32 0, null, metadata !75, i32 0, i32 0} ; [ DW_TAG_subroutine_type ]
!75 = metadata !{null, metadata !56, metadata !76}
!76 = metadata !{i32 786448, null, null, null, i32 0, i64 0, i64 0, i64 0, i32 0, metadata !52} ; [ DW_TAG_reference_type ]
!77 = metadata !{i32 786478, i32 0, metadata !47, metadata !"operator<<", metadata !"operator<<", metadata !"_ZN3hls6streamIiElsERKi", metadata !49, i32 105, metadata !78, i1 false, i1 false, i32 0, i32 0, null, i32 256, i1 false, null, null, i32 0, metadata !57, i32 105} ; [ DW_TAG_subprogram ]
!78 = metadata !{i32 786453, i32 0, metadata !"", i32 0, i32 0, i64 0, i64 0, i64 0, i32 0, null, metadata !79, i32 0, i32 0} ; [ DW_TAG_subroutine_type ]
!79 = metadata !{null, metadata !56, metadata !80}
!80 = metadata !{i32 786448, null, null, null, i32 0, i64 0, i64 0, i64 0, i32 0, metadata !81} ; [ DW_TAG_reference_type ]
!81 = metadata !{i32 786470, null, metadata !"", null, i32 0, i64 0, i64 0, i64 0, i32 0, metadata !52} ; [ DW_TAG_const_type ]
!82 = metadata !{i32 786478, i32 0, metadata !47, metadata !"empty", metadata !"empty", metadata !"_ZNK3hls6streamIiE5emptyEv", metadata !49, i32 112, metadata !83, i1 false, i1 false, i32 0, i32 0, null, i32 256, i1 false, null, null, i32 0, metadata !57, i32 112} ; [ DW_TAG_subprogram ]
!83 = metadata !{i32 786453, i32 0, metadata !"", i32 0, i32 0, i64 0, i64 0, i64 0, i32 0, null, metadata !84, i32 0, i32 0} ; [ DW_TAG_subroutine_type ]
!84 = metadata !{metadata !85, metadata !86}
!85 = metadata !{i32 786468, null, metadata !"bool", null, i32 0, i64 8, i64 8, i64 0, i32 0, i32 2} ; [ DW_TAG_base_type ]
!86 = metadata !{i32 786447, i32 0, metadata !"", i32 0, i32 0, i64 64, i64 64, i64 0, i32 64, metadata !69} ; [ DW_TAG_pointer_type ]
!87 = metadata !{i32 786478, i32 0, metadata !47, metadata !"full", metadata !"full", metadata !"_ZNK3hls6streamIiE4fullEv", metadata !49, i32 117, metadata !83, i1 false, i1 false, i32 0, i32 0, null, i32 256, i1 false, null, null, i32 0, metadata !57, i32 117} ; [ DW_TAG_subprogram ]
!88 = metadata !{i32 786478, i32 0, metadata !47, metadata !"read", metadata !"read", metadata !"_ZN3hls6streamIiE4readERi", metadata !49, i32 123, metadata !74, i1 false, i1 false, i32 0, i32 0, null, i32 256, i1 false, null, null, i32 0, metadata !57, i32 123} ; [ DW_TAG_subprogram ]
!89 = metadata !{i32 786478, i32 0, metadata !47, metadata !"read", metadata !"read", metadata !"_ZN3hls6streamIiE4readEv", metadata !49, i32 129, metadata !90, i1 false, i1 false, i32 0, i32 0, null, i32 256, i1 false, null, null, i32 0, metadata !57, i32 129} ; [ DW_TAG_subprogram ]
!90 = metadata !{i32 786453, i32 0, metadata !"", i32 0, i32 0, i64 0, i64 0, i64 0, i32 0, null, metadata !91, i32 0, i32 0} ; [ DW_TAG_subroutine_type ]
!91 = metadata !{metadata !52, metadata !56}
!92 = metadata !{i32 786478, i32 0, metadata !47, metadata !"read_nb", metadata !"read_nb", metadata !"_ZN3hls6streamIiE7read_nbERi", metadata !49, i32 136, metadata !93, i1 false, i1 false, i32 0, i32 0, null, i32 256, i1 false, null, null, i32 0, metadata !57, i32 136} ; [ DW_TAG_subprogram ]
!93 = metadata !{i32 786453, i32 0, metadata !"", i32 0, i32 0, i64 0, i64 0, i64 0, i32 0, null, metadata !94, i32 0, i32 0} ; [ DW_TAG_subroutine_type ]
!94 = metadata !{metadata !85, metadata !56, metadata !76}
!95 = metadata !{i32 786478, i32 0, metadata !47, metadata !"write", metadata !"write", metadata !"_ZN3hls6streamIiE5writeERKi", metadata !49, i32 144, metadata !78, i1 false, i1 false, i32 0, i32 0, null, i32 256, i1 false, null, null, i32 0, metadata !57, i32 144} ; [ DW_TAG_subprogram ]
!96 = metadata !{i32 786478, i32 0, metadata !47, metadata !"write_nb", metadata !"write_nb", metadata !"_ZN3hls6streamIiE8write_nbERKi", metadata !49, i32 150, metadata !97, i1 false, i1 false, i32 0, i32 0, null, i32 256, i1 false, null, null, i32 0, metadata !57, i32 150} ; [ DW_TAG_subprogram ]
!97 = metadata !{i32 786453, i32 0, metadata !"", i32 0, i32 0, i64 0, i64 0, i64 0, i32 0, null, metadata !98, i32 0, i32 0} ; [ DW_TAG_subroutine_type ]
!98 = metadata !{metadata !85, metadata !56, metadata !80}
!99 = metadata !{i32 786478, i32 0, metadata !47, metadata !"size", metadata !"size", metadata !"_ZN3hls6streamIiE4sizeEv", metadata !49, i32 157, metadata !100, i1 false, i1 false, i32 0, i32 0, null, i32 256, i1 false, null, null, i32 0, metadata !57, i32 157} ; [ DW_TAG_subprogram ]
!100 = metadata !{i32 786453, i32 0, metadata !"", i32 0, i32 0, i64 0, i64 0, i64 0, i32 0, null, metadata !101, i32 0, i32 0} ; [ DW_TAG_subroutine_type ]
!101 = metadata !{metadata !102, metadata !56}
!102 = metadata !{i32 786468, null, metadata !"unsigned int", null, i32 0, i64 32, i64 32, i64 0, i32 0, i32 7} ; [ DW_TAG_base_type ]
!103 = metadata !{metadata !104}
!104 = metadata !{i32 786479, null, metadata !"__STREAM_T__", metadata !52, null, i32 0, i32 0} ; [ DW_TAG_template_type_parameter ]
!105 = metadata !{i32 786447, null, metadata !"", null, i32 0, i64 64, i64 64, i64 0, i32 0, metadata !106} ; [ DW_TAG_pointer_type ]
!106 = metadata !{i32 786454, null, metadata !"Input_Type", metadata !43, i32 8, i64 0, i64 0, i64 0, i32 0, metadata !52} ; [ DW_TAG_typedef ]
!107 = metadata !{i32 786447, null, metadata !"", null, i32 0, i64 0, i64 0, i64 0, i32 0, metadata !108} ; [ DW_TAG_pointer_type ]
!108 = metadata !{i32 786438, metadata !48, metadata !"stream<int>", metadata !49, i32 79, i64 32, i64 32, i32 0, i32 0, null, metadata !109, i32 0, null, metadata !103} ; [ DW_TAG_class_field_type ]
!109 = metadata !{metadata !51}
!110 = metadata !{i32 3, i32 54, metadata !42, null}
!111 = metadata !{i32 786689, metadata !42, metadata !"in_array", null, i32 4, metadata !112, i32 0, i32 0} ; [ DW_TAG_arg_variable ]
!112 = metadata !{i32 786433, null, metadata !"", null, i32 0, i64 0, i64 0, i32 0, i32 0, metadata !106, metadata !113, i32 0, i32 0} ; [ DW_TAG_array_type ]
!113 = metadata !{metadata !114}
!114 = metadata !{i32 786465, i64 0, i64 359999}  ; [ DW_TAG_subrange_type ]
!115 = metadata !{i32 4, i32 16, metadata !42, null}
!116 = metadata !{i32 6, i32 32, metadata !117, null}
!117 = metadata !{i32 786443, metadata !118, i32 5, i32 63, metadata !43, i32 2} ; [ DW_TAG_lexical_block ]
!118 = metadata !{i32 786443, metadata !119, i32 5, i32 30, metadata !43, i32 1} ; [ DW_TAG_lexical_block ]
!119 = metadata !{i32 786443, metadata !42, i32 4, i32 35, metadata !43, i32 0} ; [ DW_TAG_lexical_block ]
!120 = metadata !{i32 5, i32 44, metadata !118, null}
!121 = metadata !{i32 5, i32 59, metadata !118, null}
!122 = metadata !{i32 5, i32 64, metadata !117, null}
!123 = metadata !{i32 6, i32 1, metadata !117, null}
!124 = metadata !{i32 786688, metadata !117, metadata !"temp", metadata !43, i32 6, metadata !106, i32 0, i32 0} ; [ DW_TAG_auto_variable ]
!125 = metadata !{i32 790531, metadata !126, metadata !"stream<int>.V", null, i32 144, metadata !129, i32 0, i32 0} ; [ DW_TAG_arg_variable_field ]
!126 = metadata !{i32 786689, metadata !127, metadata !"this", metadata !49, i32 16777360, metadata !128, i32 64, i32 0} ; [ DW_TAG_arg_variable ]
!127 = metadata !{i32 786478, i32 0, metadata !48, metadata !"write", metadata !"write", metadata !"_ZN3hls6streamIiE5writeERKi", metadata !49, i32 144, metadata !78, i1 false, i1 true, i32 0, i32 0, null, i32 256, i1 false, null, null, metadata !95, metadata !57, i32 144} ; [ DW_TAG_subprogram ]
!128 = metadata !{i32 786447, null, metadata !"", null, i32 0, i64 64, i64 64, i64 0, i32 0, metadata !47} ; [ DW_TAG_pointer_type ]
!129 = metadata !{i32 786447, null, metadata !"", null, i32 0, i64 64, i64 64, i64 0, i32 0, metadata !108} ; [ DW_TAG_pointer_type ]
!130 = metadata !{i32 144, i32 48, metadata !127, metadata !131}
!131 = metadata !{i32 7, i32 3, metadata !117, null}
!132 = metadata !{i32 786688, metadata !133, metadata !"tmp", metadata !49, i32 145, metadata !52, i32 0, i32 0} ; [ DW_TAG_auto_variable ]
!133 = metadata !{i32 786443, metadata !127, i32 144, i32 79, metadata !49, i32 28} ; [ DW_TAG_lexical_block ]
!134 = metadata !{i32 145, i32 31, metadata !133, metadata !131}
!135 = metadata !{i32 146, i32 9, metadata !133, metadata !131}
!136 = metadata !{i32 8, i32 2, metadata !117, null}
!137 = metadata !{i32 786688, metadata !118, metadata !"i", metadata !43, i32 5, metadata !52, i32 0, i32 0} ; [ DW_TAG_auto_variable ]
!138 = metadata !{i32 790531, metadata !139, metadata !"out_stream.V", null, i32 11, metadata !107, i32 0, i32 0} ; [ DW_TAG_arg_variable_field ]
!139 = metadata !{i32 786689, metadata !140, metadata !"out_stream", metadata !43, i32 16777227, metadata !46, i32 0, i32 0} ; [ DW_TAG_arg_variable ]
!140 = metadata !{i32 786478, i32 0, metadata !43, metadata !"read_pixels_from_stream", metadata !"read_pixels_from_stream", metadata !"_Z23read_pixels_from_streamRN3hls6streamIiEEPi", metadata !43, i32 11, metadata !141, i1 false, i1 true, i32 0, i32 0, null, i32 256, i1 false, null, null, null, metadata !57, i32 12} ; [ DW_TAG_subprogram ]
!141 = metadata !{i32 786453, i32 0, metadata !"", i32 0, i32 0, i64 0, i64 0, i64 0, i32 0, null, metadata !142, i32 0, i32 0} ; [ DW_TAG_subroutine_type ]
!142 = metadata !{null, metadata !46, metadata !143}
!143 = metadata !{i32 786447, null, metadata !"", null, i32 0, i64 64, i64 64, i64 0, i32 0, metadata !144} ; [ DW_TAG_pointer_type ]
!144 = metadata !{i32 786454, null, metadata !"Output_Type", metadata !43, i32 9, i64 0, i64 0, i64 0, i32 0, metadata !52} ; [ DW_TAG_typedef ]
!145 = metadata !{i32 11, i32 56, metadata !140, null}
!146 = metadata !{i32 786689, metadata !140, metadata !"out_array", null, i32 12, metadata !147, i32 0, i32 0} ; [ DW_TAG_arg_variable ]
!147 = metadata !{i32 786433, null, metadata !"", null, i32 0, i64 0, i64 0, i32 0, i32 0, metadata !144, metadata !148, i32 0, i32 0} ; [ DW_TAG_array_type ]
!148 = metadata !{metadata !149}
!149 = metadata !{i32 786465, i64 0, i64 357603}  ; [ DW_TAG_subrange_type ]
!150 = metadata !{i32 12, i32 18, metadata !140, null}
!151 = metadata !{i32 16, i32 3, metadata !152, null}
!152 = metadata !{i32 786443, metadata !153, i32 13, i32 64, metadata !43, i32 5} ; [ DW_TAG_lexical_block ]
!153 = metadata !{i32 786443, metadata !154, i32 13, i32 31, metadata !43, i32 4} ; [ DW_TAG_lexical_block ]
!154 = metadata !{i32 786443, metadata !140, i32 12, i32 38, metadata !43, i32 3} ; [ DW_TAG_lexical_block ]
!155 = metadata !{i32 13, i32 45, metadata !153, null}
!156 = metadata !{i32 13, i32 60, metadata !153, null}
!157 = metadata !{i32 13, i32 65, metadata !152, null}
!158 = metadata !{i32 14, i32 1, metadata !152, null}
!159 = metadata !{i32 790531, metadata !160, metadata !"stream<int>.V", null, i32 123, metadata !129, i32 0, i32 0} ; [ DW_TAG_arg_variable_field ]
!160 = metadata !{i32 786689, metadata !161, metadata !"this", metadata !49, i32 16777339, metadata !128, i32 64, i32 0} ; [ DW_TAG_arg_variable ]
!161 = metadata !{i32 786478, i32 0, metadata !48, metadata !"read", metadata !"read", metadata !"_ZN3hls6streamIiE4readERi", metadata !49, i32 123, metadata !74, i1 false, i1 true, i32 0, i32 0, null, i32 256, i1 false, null, null, metadata !88, metadata !57, i32 123} ; [ DW_TAG_subprogram ]
!162 = metadata !{i32 123, i32 48, metadata !161, metadata !163}
!163 = metadata !{i32 15, i32 3, metadata !152, null}
!164 = metadata !{i32 125, i32 9, metadata !165, metadata !163}
!165 = metadata !{i32 786443, metadata !161, i32 123, i32 73, metadata !49, i32 27} ; [ DW_TAG_lexical_block ]
!166 = metadata !{i32 786688, metadata !165, metadata !"tmp", metadata !49, i32 124, metadata !52, i32 0, i32 0} ; [ DW_TAG_auto_variable ]
!167 = metadata !{i32 786688, metadata !152, metadata !"temp", metadata !43, i32 14, metadata !144, i32 0, i32 0} ; [ DW_TAG_auto_variable ]
!168 = metadata !{i32 126, i32 9, metadata !165, metadata !163}
!169 = metadata !{i32 17, i32 2, metadata !152, null}
!170 = metadata !{i32 786688, metadata !153, metadata !"i", metadata !43, i32 13, metadata !52, i32 0, i32 0} ; [ DW_TAG_auto_variable ]
!171 = metadata !{i32 786689, metadata !172, metadata !"out_array", null, i32 77, metadata !147, i32 0, i32 0} ; [ DW_TAG_arg_variable ]
!172 = metadata !{i32 786478, i32 0, metadata !43, metadata !"filter_wrapper", metadata !"filter_wrapper", metadata !"_Z14filter_wrapperPiS_", metadata !43, i32 76, metadata !173, i1 false, i1 true, i32 0, i32 0, null, i32 256, i1 false, null, null, null, metadata !57, i32 77} ; [ DW_TAG_subprogram ]
!173 = metadata !{i32 786453, i32 0, metadata !"", i32 0, i32 0, i64 0, i64 0, i64 0, i32 0, null, metadata !174, i32 0, i32 0} ; [ DW_TAG_subroutine_type ]
!174 = metadata !{null, metadata !105, metadata !143}
!175 = metadata !{i32 77, i32 15, metadata !172, null}
!176 = metadata !{i32 786689, metadata !172, metadata !"in_array", null, i32 76, metadata !112, i32 0, i32 0} ; [ DW_TAG_arg_variable ]
!177 = metadata !{i32 76, i32 32, metadata !172, null}
!178 = metadata !{metadata !179}
!179 = metadata !{i32 0, i32 31, metadata !180}
!180 = metadata !{metadata !181, metadata !184}
!181 = metadata !{metadata !"in_array", metadata !182, metadata !"int", i32 0, i32 31}
!182 = metadata !{metadata !183}
!183 = metadata !{i32 0, i32 359999, i32 1}
!184 = metadata !{metadata !"out_array", metadata !185, metadata !"int", i32 0, i32 31}
!185 = metadata !{metadata !186}
!186 = metadata !{i32 0, i32 357603, i32 1}
!187 = metadata !{i32 78, i32 1, metadata !188, null}
!188 = metadata !{i32 786443, metadata !172, i32 77, i32 34, metadata !43, i32 25} ; [ DW_TAG_lexical_block ]
!189 = metadata !{i32 790529, metadata !190, metadata !"in_stream.V", null, i32 78, metadata !108, i32 0, i32 0} ; [ DW_TAG_auto_variable_field ]
!190 = metadata !{i32 786688, metadata !188, metadata !"in_stream", metadata !43, i32 78, metadata !47, i32 0, i32 0} ; [ DW_TAG_auto_variable ]
!191 = metadata !{i32 78, i32 26, metadata !188, null}
!192 = metadata !{i32 790529, metadata !193, metadata !"out_stream.V", null, i32 79, metadata !108, i32 0, i32 0} ; [ DW_TAG_auto_variable_field ]
!193 = metadata !{i32 786688, metadata !188, metadata !"out_stream", metadata !43, i32 79, metadata !47, i32 0, i32 0} ; [ DW_TAG_auto_variable ]
!194 = metadata !{i32 79, i32 26, metadata !188, null}
!195 = metadata !{i32 81, i32 2, metadata !188, null}
!196 = metadata !{i32 82, i32 2, metadata !188, null}
!197 = metadata !{i32 83, i32 1, metadata !188, null}
!198 = metadata !{i32 786688, metadata !199, metadata !"crop[2][1]", null, i32 48, metadata !203, i32 0, i32 0} ; [ DW_TAG_auto_variable ]
!199 = metadata !{i32 786443, metadata !200, i32 45, i32 44, metadata !43, i32 16} ; [ DW_TAG_lexical_block ]
!200 = metadata !{i32 786478, i32 0, metadata !43, metadata !"filter", metadata !"filter", metadata !"_Z6filterRN3hls6streamIiEES2_", metadata !43, i32 44, metadata !201, i1 false, i1 true, i32 0, i32 0, null, i32 256, i1 false, null, null, null, metadata !57, i32 45} ; [ DW_TAG_subprogram ]
!201 = metadata !{i32 786453, i32 0, metadata !"", i32 0, i32 0, i64 0, i64 0, i64 0, i32 0, null, metadata !202, i32 0, i32 0} ; [ DW_TAG_subroutine_type ]
!202 = metadata !{null, metadata !46, metadata !46}
!203 = metadata !{i32 786433, null, metadata !"", null, i32 0, i64 32, i64 32, i32 0, i32 0, metadata !106, metadata !204, i32 0, i32 0} ; [ DW_TAG_array_type ]
!204 = metadata !{metadata !205, metadata !205}
!205 = metadata !{i32 786465, i64 0, i64 2}       ; [ DW_TAG_subrange_type ]
!206 = metadata !{i32 786688, metadata !199, metadata !"crop[0][0]", null, i32 48, metadata !203, i32 0, i32 0} ; [ DW_TAG_auto_variable ]
!207 = metadata !{i32 786688, metadata !199, metadata !"crop[0][1]", null, i32 48, metadata !203, i32 0, i32 0} ; [ DW_TAG_auto_variable ]
!208 = metadata !{i32 786688, metadata !199, metadata !"crop[2][0]", null, i32 48, metadata !203, i32 0, i32 0} ; [ DW_TAG_auto_variable ]
!209 = metadata !{i32 786688, metadata !199, metadata !"crop[1][0]", null, i32 48, metadata !203, i32 0, i32 0} ; [ DW_TAG_auto_variable ]
!210 = metadata !{i32 786688, metadata !199, metadata !"crop[1][1]", null, i32 48, metadata !203, i32 0, i32 0} ; [ DW_TAG_auto_variable ]
!211 = metadata !{i32 790531, metadata !212, metadata !"in_stream.V", null, i32 44, metadata !107, i32 0, i32 0} ; [ DW_TAG_arg_variable_field ]
!212 = metadata !{i32 786689, metadata !200, metadata !"in_stream", metadata !43, i32 16777260, metadata !46, i32 0, i32 0} ; [ DW_TAG_arg_variable ]
!213 = metadata !{i32 44, i32 38, metadata !200, null}
!214 = metadata !{i32 790531, metadata !215, metadata !"out_stream.V", null, i32 45, metadata !107, i32 0, i32 0} ; [ DW_TAG_arg_variable_field ]
!215 = metadata !{i32 786689, metadata !200, metadata !"out_stream", metadata !43, i32 33554477, metadata !46, i32 0, i32 0} ; [ DW_TAG_arg_variable ]
!216 = metadata !{i32 45, i32 32, metadata !200, null}
!217 = metadata !{i32 786688, metadata !199, metadata !"temp_array[0]", null, i32 47, metadata !218, i32 0, i32 0} ; [ DW_TAG_auto_variable ]
!218 = metadata !{i32 786433, null, metadata !"", null, i32 0, i64 19200, i64 32, i32 0, i32 0, metadata !106, metadata !219, i32 0, i32 0} ; [ DW_TAG_array_type ]
!219 = metadata !{metadata !220, metadata !221}
!220 = metadata !{i32 786465, i64 0, i64 1}       ; [ DW_TAG_subrange_type ]
!221 = metadata !{i32 786465, i64 0, i64 599}     ; [ DW_TAG_subrange_type ]
!222 = metadata !{i32 47, i32 13, metadata !199, null}
!223 = metadata !{i32 786688, metadata !199, metadata !"temp_array[1]", null, i32 47, metadata !218, i32 0, i32 0} ; [ DW_TAG_auto_variable ]
!224 = metadata !{i32 50, i32 28, metadata !225, null}
!225 = metadata !{i32 786443, metadata !199, i32 50, i32 14, metadata !43, i32 17} ; [ DW_TAG_lexical_block ]
!226 = metadata !{i32 69, i32 29, metadata !227, null}
!227 = metadata !{i32 786443, metadata !228, i32 51, i32 45, metadata !43, i32 20} ; [ DW_TAG_lexical_block ]
!228 = metadata !{i32 786443, metadata !229, i32 51, i32 15, metadata !43, i32 19} ; [ DW_TAG_lexical_block ]
!229 = metadata !{i32 786443, metadata !225, i32 50, i32 44, metadata !43, i32 18} ; [ DW_TAG_lexical_block ]
!230 = metadata !{i32 144, i32 48, metadata !127, metadata !231}
!231 = metadata !{i32 71, i32 5, metadata !227, null}
!232 = metadata !{i32 145, i32 31, metadata !133, metadata !231}
!233 = metadata !{i32 146, i32 9, metadata !133, metadata !231}
!234 = metadata !{i32 72, i32 3, metadata !227, null}
!235 = metadata !{i32 51, i32 40, metadata !228, null}
!236 = metadata !{i32 786688, metadata !228, metadata !"j", metadata !43, i32 51, metadata !52, i32 0, i32 0} ; [ DW_TAG_auto_variable ]
!237 = metadata !{i32 51, i32 29, metadata !228, null}
!238 = metadata !{i32 50, i32 39, metadata !225, null}
!239 = metadata !{i32 70, i32 4, metadata !227, null}
!240 = metadata !{i32 51, i32 46, metadata !227, null}
!241 = metadata !{i32 52, i32 1, metadata !227, null}
!242 = metadata !{i32 123, i32 48, metadata !161, metadata !243}
!243 = metadata !{i32 53, i32 4, metadata !227, null}
!244 = metadata !{i32 125, i32 9, metadata !165, metadata !243}
!245 = metadata !{i32 786688, metadata !227, metadata !"new_input", metadata !43, i32 52, metadata !106, i32 0, i32 0} ; [ DW_TAG_auto_variable ]
!246 = metadata !{i32 126, i32 9, metadata !165, metadata !243}
!247 = metadata !{i32 61, i32 6, metadata !248, null}
!248 = metadata !{i32 786443, metadata !227, i32 60, i32 5, metadata !43, i32 23} ; [ DW_TAG_lexical_block ]
!249 = metadata !{i32 786688, metadata !199, metadata !"crop[0][2]", null, i32 48, metadata !203, i32 0, i32 0} ; [ DW_TAG_auto_variable ]
!250 = metadata !{i32 786688, metadata !199, metadata !"crop[1][2]", null, i32 48, metadata !203, i32 0, i32 0} ; [ DW_TAG_auto_variable ]
!251 = metadata !{i32 786688, metadata !199, metadata !"crop[2][2]", null, i32 48, metadata !203, i32 0, i32 0} ; [ DW_TAG_auto_variable ]
!252 = metadata !{i32 63, i32 5, metadata !227, null}
!253 = metadata !{i32 66, i32 6, metadata !254, null}
!254 = metadata !{i32 786443, metadata !227, i32 65, i32 5, metadata !43, i32 24} ; [ DW_TAG_lexical_block ]
!255 = metadata !{i32 68, i32 5, metadata !227, null}
!256 = metadata !{i32 786688, metadata !227, metadata !"new_output", metadata !43, i32 69, metadata !144, i32 0, i32 0} ; [ DW_TAG_auto_variable ]
!257 = metadata !{i32 74, i32 1, metadata !199, null}
!258 = metadata !{i32 790532, metadata !259, metadata !"CROP[2][2]", null, i32 20, metadata !106, i32 0, i32 0} ; [ DW_TAG_arg_variable_ro ]
!259 = metadata !{i32 786478, i32 0, metadata !43, metadata !"bubble_sort", metadata !"bubble_sort", metadata !"_Z11bubble_sortPA3_i", metadata !43, i32 20, metadata !260, i1 false, i1 true, i32 0, i32 0, null, i32 256, i1 false, null, null, null, metadata !57, i32 20} ; [ DW_TAG_subprogram ]
!260 = metadata !{i32 786453, i32 0, metadata !"", i32 0, i32 0, i64 0, i64 0, i64 0, i32 0, null, metadata !261, i32 0, i32 0} ; [ DW_TAG_subroutine_type ]
!261 = metadata !{metadata !144, metadata !262}
!262 = metadata !{i32 786447, null, metadata !"", null, i32 0, i64 64, i64 64, i64 0, i32 0, metadata !263} ; [ DW_TAG_pointer_type ]
!263 = metadata !{i32 786433, null, metadata !"", null, i32 0, i64 96, i64 32, i32 0, i32 0, metadata !106, metadata !264, i32 0, i32 0} ; [ DW_TAG_array_type ]
!264 = metadata !{metadata !205}
!265 = metadata !{i32 20, i32 36, metadata !259, null}
!266 = metadata !{i32 790532, metadata !259, metadata !"CROP[2][1]", null, i32 20, metadata !106, i32 0, i32 0} ; [ DW_TAG_arg_variable_ro ]
!267 = metadata !{i32 790532, metadata !259, metadata !"CROP[2][0]", null, i32 20, metadata !106, i32 0, i32 0} ; [ DW_TAG_arg_variable_ro ]
!268 = metadata !{i32 790532, metadata !259, metadata !"CROP[1][2]", null, i32 20, metadata !106, i32 0, i32 0} ; [ DW_TAG_arg_variable_ro ]
!269 = metadata !{i32 790532, metadata !259, metadata !"CROP[1][1]", null, i32 20, metadata !106, i32 0, i32 0} ; [ DW_TAG_arg_variable_ro ]
!270 = metadata !{i32 790532, metadata !259, metadata !"CROP[1][0]", null, i32 20, metadata !106, i32 0, i32 0} ; [ DW_TAG_arg_variable_ro ]
!271 = metadata !{i32 790532, metadata !259, metadata !"CROP[0][2]", null, i32 20, metadata !106, i32 0, i32 0} ; [ DW_TAG_arg_variable_ro ]
!272 = metadata !{i32 790532, metadata !259, metadata !"CROP[0][1]", null, i32 20, metadata !106, i32 0, i32 0} ; [ DW_TAG_arg_variable_ro ]
!273 = metadata !{i32 790532, metadata !259, metadata !"CROP[0][0]", null, i32 20, metadata !106, i32 0, i32 0} ; [ DW_TAG_arg_variable_ro ]
!274 = metadata !{i32 33, i32 5, metadata !275, null}
!275 = metadata !{i32 786443, metadata !276, i32 32, i32 56, metadata !43, i32 14} ; [ DW_TAG_lexical_block ]
!276 = metadata !{i32 786443, metadata !277, i32 32, i32 26, metadata !43, i32 13} ; [ DW_TAG_lexical_block ]
!277 = metadata !{i32 786443, metadata !278, i32 31, i32 32, metadata !43, i32 12} ; [ DW_TAG_lexical_block ]
!278 = metadata !{i32 786443, metadata !279, i32 31, i32 2, metadata !43, i32 11} ; [ DW_TAG_lexical_block ]
!279 = metadata !{i32 786443, metadata !259, i32 20, i32 48, metadata !43, i32 6} ; [ DW_TAG_lexical_block ]
!280 = metadata !{i32 41, i32 2, metadata !279, null}
